 httpdemo

 Timestamp is 57d7f164 (Tue Sep 13 20:30:28 2016)

 Preferred load address is 00400000

 Start         Length     Name                   Class
 0001:00000000 0000a94eH .text                   CODE
 0002:00000000 000001d4H .idata$5                DATA
 0002:000001d4 00000004H .CRT$XCA                DATA
 0002:000001d8 00000004H .CRT$XCAA               DATA
 0002:000001dc 00000004H .CRT$XCZ                DATA
 0002:000001e0 00000004H .CRT$XIA                DATA
 0002:000001e4 00000004H .CRT$XIAA               DATA
 0002:000001e8 00000004H .CRT$XIC                DATA
 0002:000001ec 00000004H .CRT$XIY                DATA
 0002:000001f0 00000004H .CRT$XIZ                DATA
 0002:000001f8 000025a8H .rdata                  DATA
 0002:000027a0 00000004H .rdata$sxdata           DATA
 0002:000027a4 00000004H .rtc$IAA                DATA
 0002:000027a8 00000004H .rtc$IZZ                DATA
 0002:000027ac 00000004H .rtc$TAA                DATA
 0002:000027b0 00000004H .rtc$TZZ                DATA
 0002:000027b8 0000007cH .xdata$x                DATA
 0002:00002834 00000050H .idata$2                DATA
 0002:00002884 00000014H .idata$3                DATA
 0002:00002898 000001d4H .idata$4                DATA
 0002:00002a6c 000005fcH .idata$6                DATA
 0002:00003068 00000000H .edata                  DATA
 0003:00000000 00000270H .data                   DATA
 0003:00000270 00000704H .bss                    DATA

  Address         Publics by Value              Rva+Base       Lib:Object

 0000:00000000       __except_list              00000000     <absolute>
 0000:00000001       ___safe_se_handler_count   00000001     <absolute>
 0000:00009876       __fltused                  00009876     <absolute>
 0000:00009876       __ldused                   00009876     <absolute>
 0000:00000000       ___ImageBase               00400000     <linker-defined>
 0001:00000140       _getURL                    00401140 f   httpdemo.obj
 0001:000002c0       _main                      004012c0 f   httpdemo.obj
 0001:000006d0       _pj_http_headers_add_elmt  004016d0 f   pjlib-util-i386-win32-vc8-release:http_client.obj
 0001:00000840       _pj_http_req_param_default 00401840 f   pjlib-util-i386-win32-vc8-release:http_client.obj
 0001:00000900       _pj_http_req_parse_url     00401900 f   pjlib-util-i386-win32-vc8-release:http_client.obj
 0001:00000b60       _pj_http_req_is_running    00401b60 f   pjlib-util-i386-win32-vc8-release:http_client.obj
 0001:000013e0       _pj_http_req_cancel        004023e0 f   pjlib-util-i386-win32-vc8-release:http_client.obj
 0001:00001470       _pj_http_req_destroy       00402470 f   pjlib-util-i386-win32-vc8-release:http_client.obj
 0001:00001760       _pj_http_req_create        00402760 f   pjlib-util-i386-win32-vc8-release:http_client.obj
 0001:00002560       _pj_http_req_start         00403560 f   pjlib-util-i386-win32-vc8-release:http_client.obj
 0001:00002630       _pjlib_util_strerror       00403630 f   pjlib-util-i386-win32-vc8-release:errno.obj
 0001:00002710       _pjlib_util_init           00403710 f   pjlib-util-i386-win32-vc8-release:errno.obj
 0001:00002730       _pj_scan_fini              00403730 f   pjlib-util-i386-win32-vc8-release:scanner.obj
 0001:00002750       _pj_scan_skip_whitespace   00403750 f   pjlib-util-i386-win32-vc8-release:scanner.obj
 0001:00002820       _pj_scan_get_quotes        00403820 f   pjlib-util-i386-win32-vc8-release:scanner.obj
 0001:000028f0       _pj_scan_get_char          004038f0 f   pjlib-util-i386-win32-vc8-release:scanner.obj
 0001:00002930       _pj_scan_get_until_ch      00403930 f   pjlib-util-i386-win32-vc8-release:scanner.obj
 0001:00002990       _pj_scan_get_until_chr     00403990 f   pjlib-util-i386-win32-vc8-release:scanner.obj
 0001:00002a10       _pj_scan_advance_n         00403a10 f   pjlib-util-i386-win32-vc8-release:scanner.obj
 0001:00002a50       _pj_scan_strcmp            00403a50 f   pjlib-util-i386-win32-vc8-release:scanner.obj
 0001:00002a80       _pj_scan_init              00403a80 f   pjlib-util-i386-win32-vc8-release:scanner.obj
 0001:00002ad0       _pj_scan_get_quote         00403ad0 f   pjlib-util-i386-win32-vc8-release:scanner.obj
 0001:00002b00       _pj_str_unescape           00403b00 f   pjlib-util-i386-win32-vc8-release:string.obj
 0001:00002bf0       _pj_base64_encode          00403bf0 f   pjlib-util-i386-win32-vc8-release:base64.obj
 0001:00002d80       _pj_md5_init               00403d80 f   pjlib-util-i386-win32-vc8-release:md5.obj
 0001:00003430       _pj_md5_update             00404430 f   pjlib-util-i386-win32-vc8-release:md5.obj
 0001:000034f0       _pj_md5_final              004044f0 f   pjlib-util-i386-win32-vc8-release:md5.obj
 0001:00003610       _pj_str                    00404610 f   pjlib-i386-win32-vc8-release:string.obj
 0001:00003630       _pj_strdup                 00404630 f   pjlib-i386-win32-vc8-release:string.obj
 0001:00003670       _pj_strdup_with_null       00404670 f   pjlib-i386-win32-vc8-release:string.obj
 0001:000036c0       _pj_strdup2                004046c0 f   pjlib-i386-win32-vc8-release:string.obj
 0001:00003720       _pj_strassign              00404720 f   pjlib-i386-win32-vc8-release:string.obj
 0001:00003740       _pj_strcpy                 00404740 f   pjlib-i386-win32-vc8-release:string.obj
 0001:00003770       _pj_strcpy2                00404770 f   pjlib-i386-win32-vc8-release:string.obj
 0001:000037b0       _pj_strncpy_with_null      004047b0 f   pjlib-i386-win32-vc8-release:string.obj
 0001:000037f0       _pj_strcmp                 004047f0 f   pjlib-i386-win32-vc8-release:string.obj
 0001:00003850       _pj_strcmp2                00404850 f   pjlib-i386-win32-vc8-release:string.obj
 0001:000038b0       _pj_stricmp                004048b0 f   pjlib-i386-win32-vc8-release:string.obj
 0001:00003920       _pj_stricmp2               00404920 f   pjlib-i386-win32-vc8-release:string.obj
 0001:00003980       _pj_strcat                 00404980 f   pjlib-i386-win32-vc8-release:string.obj
 0001:000039b0       _pj_strcat2                004049b0 f   pjlib-i386-win32-vc8-release:string.obj
 0001:000039f0       _pj_strtoul                004049f0 f   pjlib-i386-win32-vc8-release:string.obj
 0001:00003a50       _pj_utoa_pad               00404a50 f   pjlib-i386-win32-vc8-release:string.obj
 0001:00003ad0       _pj_utoa                   00404ad0 f   pjlib-i386-win32-vc8-release:string.obj
 0001:00003b30       _pj_log_init               00404b30 f   pjlib-i386-win32-vc8-release:log.obj
 0001:00003ba0       _pj_log_get_decor          00404ba0 f   pjlib-i386-win32-vc8-release:log.obj
 0001:00003bb0       _pj_log_get_color          00404bb0 f   pjlib-i386-win32-vc8-release:log.obj
 0001:00003c10       _pj_log_set_level          00404c10 f   pjlib-i386-win32-vc8-release:log.obj
 0001:00003c20       _pj_log_get_level          00404c20 f   pjlib-i386-win32-vc8-release:log.obj
 0001:00003c30       _pj_log                    00404c30 f   pjlib-i386-win32-vc8-release:log.obj
 0001:00004090       _pj_log_1                  00405090 f   pjlib-i386-win32-vc8-release:log.obj
 0001:000040b0       _pj_log_3                  004050b0 f   pjlib-i386-win32-vc8-release:log.obj
 0001:000040d0       _pj_log_4                  004050d0 f   pjlib-i386-win32-vc8-release:log.obj
 0001:000040f0       _pj_log_5                  004050f0 f   pjlib-i386-win32-vc8-release:log.obj
 0001:00004180       _pj_register_strerror      00405180 f   pjlib-i386-win32-vc8-release:errno.obj
 0001:00004260       _pj_errno_clear_handlers   00405260 f   pjlib-i386-win32-vc8-release:errno.obj
 0001:00004280       _pj_strerror               00405280 f   pjlib-i386-win32-vc8-release:errno.obj
 0001:00004410       _pj_perror_1               00405410 f   pjlib-i386-win32-vc8-release:errno.obj
 0001:00004430       _pj_pool_get_capacity      00405430 f   pjlib-i386-win32-vc8-release:pool.obj
 0001:00004440       _pj_pool_get_used_size     00405440 f   pjlib-i386-win32-vc8-release:pool.obj
 0001:00004470       _pj_pool_alloc_from_block  00405470 f   pjlib-i386-win32-vc8-release:pool.obj
 0001:000044a0       _pj_pool_getobjname        004054a0 f   pjlib-i386-win32-vc8-release:pool.obj
 0001:000044b0       _pj_pool_create            004054b0 f   pjlib-i386-win32-vc8-release:pool.obj
 0001:000044c0       _pj_pool_release           004054c0 f   pjlib-i386-win32-vc8-release:pool.obj
 0001:00004550       _pj_pool_allocate_find     00405550 f   pjlib-i386-win32-vc8-release:pool.obj
 0001:00004600       _pj_pool_init_int          00405600 f   pjlib-i386-win32-vc8-release:pool.obj
 0001:00004670       _pj_pool_create_int        00405670 f   pjlib-i386-win32-vc8-release:pool.obj
 0001:00004780       _pj_pool_reset             00405780 f   pjlib-i386-win32-vc8-release:pool.obj
 0001:00004790       _pj_pool_destroy_int       00405790 f   pjlib-i386-win32-vc8-release:pool.obj
 0001:000047d0       _pj_pool_alloc             004057d0 f   pjlib-i386-win32-vc8-release:pool.obj
 0001:00004810       _pj_pool_calloc            00405810 f   pjlib-i386-win32-vc8-release:pool.obj
 0001:00004ca0       _pj_timer_heap_create      00405ca0 f   pjlib-i386-win32-vc8-release:timer.obj
 0001:00004d60       _pj_timer_heap_destroy     00405d60 f   pjlib-i386-win32-vc8-release:timer.obj
 0001:00004d90       _pj_timer_entry_init       00405d90 f   pjlib-i386-win32-vc8-release:timer.obj
 0001:00004ea0       _pj_timer_heap_schedule    00405ea0 f   pjlib-i386-win32-vc8-release:timer.obj
 0001:00004ec0       _pj_timer_heap_cancel      00405ec0 f   pjlib-i386-win32-vc8-release:timer.obj
 0001:00004f30       _pj_timer_heap_poll        00405f30 f   pjlib-i386-win32-vc8-release:timer.obj
 0001:000050b0       _pj_ioqueue_set_lock       004060b0 f   pjlib-i386-win32-vc8-release:ioqueue_select.obj
 0001:000050f0       _pj_ioqueue_get_user_data  004060f0 f   pjlib-i386-win32-vc8-release:ioqueue_select.obj
 0001:00005100       _pj_ioqueue_op_key_init    00406100 f   pjlib-i386-win32-vc8-release:ioqueue_select.obj
 0001:00005120       _pj_ioqueue_set_concurrency 00406120 f   pjlib-i386-win32-vc8-release:ioqueue_select.obj
 0001:00005140       _pj_ioqueue_lock_key       00406140 f   pjlib-i386-win32-vc8-release:ioqueue_select.obj
 0001:00005160       _pj_ioqueue_unlock_key     00406160 f   pjlib-i386-win32-vc8-release:ioqueue_select.obj
 0001:00005180       _pj_ioqueue_create         00406180 f   pjlib-i386-win32-vc8-release:ioqueue_select.obj
 0001:00005330       _pj_ioqueue_destroy        00406330 f   pjlib-i386-win32-vc8-release:ioqueue_select.obj
 0001:000054b0       _pj_ioqueue_unregister     004064b0 f   pjlib-i386-win32-vc8-release:ioqueue_select.obj
 0001:000056c0       _ioqueue_dispatch_write_event 004066c0 f   pjlib-i386-win32-vc8-release:ioqueue_select.obj
 0001:000059a0       _ioqueue_dispatch_read_event 004069a0 f   pjlib-i386-win32-vc8-release:ioqueue_select.obj
 0001:00005bd0       _ioqueue_dispatch_exception_event 00406bd0 f   pjlib-i386-win32-vc8-release:ioqueue_select.obj
 0001:00005d30       _pj_ioqueue_recv           00406d30 f   pjlib-i386-win32-vc8-release:ioqueue_select.obj
 0001:00005e60       _pj_ioqueue_recvfrom       00406e60 f   pjlib-i386-win32-vc8-release:ioqueue_select.obj
 0001:00005fb0       _pj_ioqueue_send           00406fb0 f   pjlib-i386-win32-vc8-release:ioqueue_select.obj
 0001:00006160       _pj_ioqueue_accept         00407160 f   pjlib-i386-win32-vc8-release:ioqueue_select.obj
 0001:000062a0       _pj_ioqueue_connect        004072a0 f   pjlib-i386-win32-vc8-release:ioqueue_select.obj
 0001:00006390       _pj_ioqueue_register_sock2 00407390 f   pjlib-i386-win32-vc8-release:ioqueue_select.obj
 0001:000064a0       _pj_ioqueue_poll           004074a0 f   pjlib-i386-win32-vc8-release:ioqueue_select.obj
 0001:00006780       _pj_atexit                 00407780 f   pjlib-i386-win32-vc8-release:os_core_win32.obj
 0001:000067b0       _pj_atomic_destroy         004077b0 f   pjlib-i386-win32-vc8-release:os_core_win32.obj
 0001:000067d0       _pj_thread_local_alloc     004077d0 f   pjlib-i386-win32-vc8-release:os_core_win32.obj
 0001:00006820       _pj_thread_local_set       00407820 f   pjlib-i386-win32-vc8-release:os_core_win32.obj
 0001:00006860       _pj_thread_local_get       00407860 f   pjlib-i386-win32-vc8-release:os_core_win32.obj
 0001:00006870       _pj_thread_register        00407870 f   pjlib-i386-win32-vc8-release:os_core_win32.obj
 0001:00006940       _pj_thread_init            00407940 f   pjlib-i386-win32-vc8-release:os_core_win32.obj
 0001:00006990       _pj_thread_this            00407990 f   pjlib-i386-win32-vc8-release:os_core_win32.obj
 0001:000069a0       _pj_thread_check_stack     004079a0 f   pjlib-i386-win32-vc8-release:os_core_win32.obj
 0001:000069e0       _pj_atomic_inc             004079e0 f   pjlib-i386-win32-vc8-release:os_core_win32.obj
 0001:00006a30       _pj_atomic_dec_and_get     00407a30 f   pjlib-i386-win32-vc8-release:os_core_win32.obj
 0001:00006a80       _pj_thread_local_free      00407a80 f   pjlib-i386-win32-vc8-release:os_core_win32.obj
 0001:00006b70       _pj_mutex_create           00407b70 f   pjlib-i386-win32-vc8-release:os_core_win32.obj
 0001:00006bc0       _pj_mutex_create_simple    00407bc0 f   pjlib-i386-win32-vc8-release:os_core_win32.obj
 0001:00006c10       _pj_mutex_lock             00407c10 f   pjlib-i386-win32-vc8-release:os_core_win32.obj
 0001:00006c70       _pj_mutex_unlock           00407c70 f   pjlib-i386-win32-vc8-release:os_core_win32.obj
 0001:00006cd0       _pj_mutex_trylock          00407cd0 f   pjlib-i386-win32-vc8-release:os_core_win32.obj
 0001:00006d40       _pj_mutex_destroy          00407d40 f   pjlib-i386-win32-vc8-release:os_core_win32.obj
 0001:00006da0       _pj_enter_critical_section 00407da0 f   pjlib-i386-win32-vc8-release:os_core_win32.obj
 0001:00006db0       _pj_leave_critical_section 00407db0 f   pjlib-i386-win32-vc8-release:os_core_win32.obj
 0001:00006e60       _pj_sem_wait               00407e60 f   pjlib-i386-win32-vc8-release:os_core_win32.obj
 0001:00006ec0       _pj_sem_trywait            00407ec0 f   pjlib-i386-win32-vc8-release:os_core_win32.obj
 0001:00006f20       _pj_sem_post               00407f20 f   pjlib-i386-win32-vc8-release:os_core_win32.obj
 0001:00006fb0       _pj_sem_destroy            00407fb0 f   pjlib-i386-win32-vc8-release:os_core_win32.obj
 0001:00007030       _pj_term_set_color         00408030 f   pjlib-i386-win32-vc8-release:os_core_win32.obj
 0001:000070d0       _pj_init                   004080d0 f   pjlib-i386-win32-vc8-release:os_core_win32.obj
 0001:00007230       _pj_shutdown               00408230 f   pjlib-i386-win32-vc8-release:os_core_win32.obj
 0001:00007370       _pj_thread_get_name        00408370 f   pjlib-i386-win32-vc8-release:os_core_win32.obj
 0001:000073c0       _pj_thread_sleep           004083c0 f   pjlib-i386-win32-vc8-release:os_core_win32.obj
 0001:00007410       _pj_caching_pool_destroy   00408410 f   pjlib-i386-win32-vc8-release:pool_caching.obj
 0001:00007860       _pj_caching_pool_init      00408860 f   pjlib-i386-win32-vc8-release:pool_caching.obj
 0001:00007990       _pj_push_exception_handler_ 00408990 f   pjlib-i386-win32-vc8-release:except.obj
 0001:000079e0       _pj_pop_exception_handler_ 004089e0 f   pjlib-i386-win32-vc8-release:except.obj
 0001:00007a10       _pj_exception_id_alloc     00408a10 f   pjlib-i386-win32-vc8-release:except.obj
 0001:00007a60       _pj_exception_id_free      00408a60 f   pjlib-i386-win32-vc8-release:except.obj
 0001:00007a90       _pj_throw_exception_       00408a90 f   pjlib-i386-win32-vc8-release:except.obj
 0001:00007b30       _pj_time_val_normalize     00408b30 f   pjlib-i386-win32-vc8-release:types.obj
 0001:00007bc0       _pj_ntohs                  00408bc0 f   pjlib-i386-win32-vc8-release:sock_bsd.obj
 0001:00007bd0       _pj_htons                  00408bd0 f   pjlib-i386-win32-vc8-release:sock_bsd.obj
 0001:00007be0       _pj_ntohl                  00408be0 f   pjlib-i386-win32-vc8-release:sock_bsd.obj
 0001:00007bf0       _pj_inet_aton              00408bf0 f   pjlib-i386-win32-vc8-release:sock_bsd.obj
 0001:00007c70       _pj_inet_pton              00408c70 f   pjlib-i386-win32-vc8-release:sock_bsd.obj
 0001:00007de0       _pj_sock_socket            00408de0 f   pjlib-i386-win32-vc8-release:sock_bsd.obj
 0001:00007e90       _pj_sock_bind              00408e90 f   pjlib-i386-win32-vc8-release:sock_bsd.obj
 0001:00007ef0       _pj_sock_close             00408ef0 f   pjlib-i386-win32-vc8-release:sock_bsd.obj
 0001:00007f40       _pj_sock_getsockname       00408f40 f   pjlib-i386-win32-vc8-release:sock_bsd.obj
 0001:00007fa0       _pj_sock_send              00408fa0 f   pjlib-i386-win32-vc8-release:sock_bsd.obj
 0001:00008010       _pj_sock_sendto            00409010 f   pjlib-i386-win32-vc8-release:sock_bsd.obj
 0001:00008080       _pj_sock_recv              00409080 f   pjlib-i386-win32-vc8-release:sock_bsd.obj
 0001:000080f0       _pj_sock_recvfrom          004090f0 f   pjlib-i386-win32-vc8-release:sock_bsd.obj
 0001:00008170       _pj_sock_getsockopt        00409170 f   pjlib-i386-win32-vc8-release:sock_bsd.obj
 0001:000081e0       _pj_sock_connect           004091e0 f   pjlib-i386-win32-vc8-release:sock_bsd.obj
 0001:00008240       _pj_sock_accept            00409240 f   pjlib-i386-win32-vc8-release:sock_bsd.obj
 0001:000082b0       _pj_activesock_close       004092b0 f   pjlib-i386-win32-vc8-release:activesock.obj
 0001:000082e0       _pj_activesock_get_user_data 004092e0 f   pjlib-i386-win32-vc8-release:activesock.obj
 0001:000082f0       _pj_activesock_start_read2 004092f0 f   pjlib-i386-win32-vc8-release:activesock.obj
 0001:00008650       _pj_activesock_send        00409650 f   pjlib-i386-win32-vc8-release:activesock.obj
 0001:000088e0       _pj_activesock_start_connect 004098e0 f   pjlib-i386-win32-vc8-release:activesock.obj
 0001:00008940       _pj_activesock_create      00409940 f   pjlib-i386-win32-vc8-release:activesock.obj
 0001:00008b10       _pj_sockaddr_in_set_str_addr 00409b10 f   pjlib-i386-win32-vc8-release:sock_common.obj
 0001:00008bc0       _pj_sockaddr_set_str_addr  00409bc0 f   pjlib-i386-win32-vc8-release:sock_common.obj
 0001:00008cf0       _pj_sockaddr_has_addr      00409cf0 f   pjlib-i386-win32-vc8-release:sock_common.obj
 0001:00008d90       _pj_sockaddr_get_len       00409d90 f   pjlib-i386-win32-vc8-release:sock_common.obj
 0001:00008dd0       _pj_sockaddr_in_init       00409dd0 f   pjlib-i386-win32-vc8-release:sock_common.obj
 0001:00008e20       _pj_sockaddr_init          00409e20 f   pjlib-i386-win32-vc8-release:sock_common.obj
 0001:00008eb0       _pj_rand                   00409eb0 f   pjlib-i386-win32-vc8-release:rand.obj
 0001:00008ee0       _pj_log_write              00409ee0 f   pjlib-i386-win32-vc8-release:log_writer_stdout.obj
 0001:00008fb0       _pj_gettimeofday           00409fb0 f   pjlib-i386-win32-vc8-release:os_time_win32.obj
 0001:00009020       _pj_time_decode            0040a020 f   pjlib-i386-win32-vc8-release:os_time_win32.obj
 0001:000090b0       _pj_get_netos_error        0040a0b0 f   pjlib-i386-win32-vc8-release:os_error_win32.obj
 0001:000090d0       _platform_strerror         0040a0d0 f   pjlib-i386-win32-vc8-release:os_error_win32.obj
 0001:000091c0       _pj_list_insert_after      0040a1c0 f   pjlib-i386-win32-vc8-release:list.obj
 0001:000091e0       _pj_list_insert_before     0040a1e0 f   pjlib-i386-win32-vc8-release:list.obj
 0001:00009200       _pj_list_erase             0040a200 f   pjlib-i386-win32-vc8-release:list.obj
 0001:000092a0       _pj_lock_create_simple_mutex 0040a2a0 f   pjlib-i386-win32-vc8-release:lock.obj
 0001:000092c0       _pj_lock_create_recursive_mutex 0040a2c0 f   pjlib-i386-win32-vc8-release:lock.obj
 0001:000092f0       _pj_lock_create_null_mutex 0040a2f0 f   pjlib-i386-win32-vc8-release:lock.obj
 0001:00009310       _pj_lock_acquire           0040a310 f   pjlib-i386-win32-vc8-release:lock.obj
 0001:00009330       _pj_lock_tryacquire        0040a330 f   pjlib-i386-win32-vc8-release:lock.obj
 0001:00009350       _pj_lock_release           0040a350 f   pjlib-i386-win32-vc8-release:lock.obj
 0001:00009370       _pj_lock_destroy           0040a370 f   pjlib-i386-win32-vc8-release:lock.obj
 0001:00009440       _pj_grp_lock_add_ref       0040a440 f   pjlib-i386-win32-vc8-release:lock.obj
 0001:00009570       _pj_grp_lock_acquire       0040a570 f   pjlib-i386-win32-vc8-release:lock.obj
 0001:00009580       _pj_grp_lock_tryacquire    0040a580 f   pjlib-i386-win32-vc8-release:lock.obj
 0001:00009590       _pj_grp_lock_dec_ref       0040a590 f   pjlib-i386-win32-vc8-release:lock.obj
 0001:00009630       _pj_grp_lock_release       0040a630 f   pjlib-i386-win32-vc8-release:lock.obj
 0001:00009640       _pj_elapsed_time           0040a640 f   pjlib-i386-win32-vc8-release:os_timestamp_common.obj
 0001:000096d0       _pj_gettickcount           0040a6d0 f   pjlib-i386-win32-vc8-release:os_timestamp_common.obj
 0001:00009710       _PJ_FD_ZERO                0040a710 f   pjlib-i386-win32-vc8-release:sock_select.obj
 0001:00009740       _PJ_FD_ISSET               0040a740 f   pjlib-i386-win32-vc8-release:sock_select.obj
 0001:00009770       _PJ_FD_COUNT               0040a770 f   pjlib-i386-win32-vc8-release:sock_select.obj
 0001:00009780       _pj_sock_select            0040a780 f   pjlib-i386-win32-vc8-release:sock_select.obj
 0001:00009810       _PJ_FD_SET                 0040a810 f   pjlib-i386-win32-vc8-release:sock_select.obj
 0001:00009870       _PJ_FD_CLR                 0040a870 f   pjlib-i386-win32-vc8-release:sock_select.obj
 0001:000098f0       _pj_get_timestamp          0040a8f0 f   pjlib-i386-win32-vc8-release:os_timestamp_win32.obj
 0001:00009950       _pj_get_timestamp_freq     0040a950 f   pjlib-i386-win32-vc8-release:os_timestamp_win32.obj
 0001:00009aa0       _pj_generate_unique_string 0040aaa0 f   pjlib-i386-win32-vc8-release:guid_win32.obj
 0001:00009b70       _pj_pool_create_on_buf     0040ab70 f   pjlib-i386-win32-vc8-release:pool_buf.obj
 0001:00009cd0       _pj_gethostbyname          0040acd0 f   pjlib-i386-win32-vc8-release:addr_resolv_sock.obj
 0001:00009da0       _pj_getaddrinfo            0040ada0 f   pjlib-i386-win32-vc8-release:addr_resolv_sock.obj
 0001:00009ed6       ___WSAFDIsSet@8            0040aed6 f   ws2_32:WS2_32.dll
 0001:00009edc       _memset                    0040aedc f   MSVCRT:MSVCR90.dll
 0001:00009ee2       @__security_check_cookie@4 0040aee2 f   MSVCRT:secchk.obj
 0001:0000a193       _mainCRTStartup            0040b193 f   MSVCRT:crtexe.obj
 0001:0000a19e       _memcpy                    0040b19e f   MSVCRT:MSVCR90.dll
 0001:0000a1a4       __setjmp3                  0040b1a4 f   MSVCRT:MSVCR90.dll
 0001:0000a1b0       __alldiv                   0040b1b0 f   MSVCRT:lldiv.obj
 0001:0000a260       __allmul                   0040b260 f   MSVCRT:llmul.obj
 0001:0000a2a0       __ftol2_sse                0040b2a0 f   MSVCRT:ftol2.obj
 0001:0000a2a9       __ftol2_pentium4           0040b2a9 f   MSVCRT:ftol2.obj
 0001:0000a2bc       __ftol2_sse_excpt          0040b2bc f   MSVCRT:ftol2.obj
 0001:0000a2d6       __ftol2                    0040b2d6 f   MSVCRT:ftol2.obj
 0001:0000a34c       __CIfmod                   0040b34c f   MSVCRT:MSVCR90.dll
 0001:0000a352       ___report_gsfailure        0040b352 f   MSVCRT:gs_report.obj
 0001:0000a458       ?__CxxUnhandledExceptionFilter@@YGJPAU_EXCEPTION_POINTERS@@@Z 0040b458 f   MSVCRT:unhandld.obj
 0001:0000a49a       ___CxxSetUnhandledExceptionFilter 0040b49a f   MSVCRT:unhandld.obj
 0001:0000a4a8       __amsg_exit                0040b4a8 f   MSVCRT:MSVCR90.dll
 0001:0000a4ae       __onexit                   0040b4ae f   MSVCRT:atonexit.obj
 0001:0000a553       _atexit                    0040b553 f   MSVCRT:atonexit.obj
 0001:0000a56a       __RTC_Initialize           0040b56a f   MSVCRT:_initsect_.obj
 0001:0000a590       __RTC_Terminate            0040b590 f   MSVCRT:_initsect_.obj
 0001:0000a5b6       __XcptFilter               0040b5b6 f   MSVCRT:MSVCR90.dll
 0001:0000a5c0       __ValidateImageBase        0040b5c0 f   MSVCRT:pesect.obj
 0001:0000a600       __FindPESection            0040b600 f   MSVCRT:pesect.obj
 0001:0000a650       __IsNonwritableInCurrentImage 0040b650 f   MSVCRT:pesect.obj
 0001:0000a70e       __initterm                 0040b70e f   MSVCRT:MSVCR90.dll
 0001:0000a714       __initterm_e               0040b714 f   MSVCRT:MSVCR90.dll
 0001:0000a71c       __SEH_prolog4              0040b71c f   MSVCRT:sehprolg4.obj
 0001:0000a761       __SEH_epilog4              0040b761 f   MSVCRT:sehprolg4.obj
 0001:0000a775       __except_handler4          0040b775 f   MSVCRT:chandler4gs.obj
 0001:0000a79a       __setdefaultprecision      0040b79a f   MSVCRT:fp8.obj
 0001:0000a7c5       __matherr                  0040b7c5 f   MSVCRT:merr.obj
 0001:0000a7c5       __setargv                  0040b7c5 f   MSVCRT:dllargv.obj
 0001:0000a7c8       ___security_init_cookie    0040b7c8 f   MSVCRT:gs_support.obj
 0001:0000a8ae       __get_sse2_info            0040b8ae f   MSVCRT:cpu_disp.obj
 0001:0000a910       ___sse2_available_init     0040b910 f   MSVCRT:cpu_disp.obj
 0001:0000a91e       __crt_debugger_hook        0040b91e f   MSVCRT:MSVCR90.dll
 0001:0000a924       ?terminate@@YAXXZ          0040b924 f   MSVCRT:MSVCR90.dll
 0001:0000a92a       __unlock                   0040b92a f   MSVCRT:MSVCR90.dll
 0001:0000a930       ___dllonexit               0040b930 f   MSVCRT:MSVCR90.dll
 0001:0000a936       __lock                     0040b936 f   MSVCRT:MSVCR90.dll
 0001:0000a93c       __except_handler4_common   0040b93c f   MSVCRT:MSVCR90.dll
 0001:0000a942       __invoke_watson            0040b942 f   MSVCRT:MSVCR90.dll
 0001:0000a948       __controlfp_s              0040b948 f   MSVCRT:MSVCR90.dll
 0002:00000000       __imp__GetSystemTimeAsFileTime@4 0040c000     kernel32:KERNEL32.dll
 0002:00000004       __imp__GetTickCount@0      0040c004     kernel32:KERNEL32.dll
 0002:00000008       __imp__IsDebuggerPresent@0 0040c008     kernel32:KERNEL32.dll
 0002:0000000c       __imp__SetUnhandledExceptionFilter@4 0040c00c     kernel32:KERNEL32.dll
 0002:00000010       __imp__UnhandledExceptionFilter@4 0040c010     kernel32:KERNEL32.dll
 0002:00000014       __imp__GetCurrentProcess@0 0040c014     kernel32:KERNEL32.dll
 0002:00000018       __imp__TerminateProcess@8  0040c018     kernel32:KERNEL32.dll
 0002:0000001c       __imp__InterlockedCompareExchange@12 0040c01c     kernel32:KERNEL32.dll
 0002:00000020       __imp__QueryPerformanceFrequency@4 0040c020     kernel32:KERNEL32.dll
 0002:00000024       __imp__QueryPerformanceCounter@4 0040c024     kernel32:KERNEL32.dll
 0002:00000028       __imp__FormatMessageA@28   0040c028     kernel32:KERNEL32.dll
 0002:0000002c       __imp__FileTimeToSystemTime@8 0040c02c     kernel32:KERNEL32.dll
 0002:00000030       __imp__GetLocalTime@4      0040c030     kernel32:KERNEL32.dll
 0002:00000034       __imp__SystemTimeToFileTime@8 0040c034     kernel32:KERNEL32.dll
 0002:00000038       __imp__Sleep@4             0040c038     kernel32:KERNEL32.dll
 0002:0000003c       __imp__GetCurrentProcessId@0 0040c03c     kernel32:KERNEL32.dll
 0002:00000040       __imp__GetStdHandle@4      0040c040     kernel32:KERNEL32.dll
 0002:00000044       __imp__SetConsoleTextAttribute@8 0040c044     kernel32:KERNEL32.dll
 0002:00000048       __imp__CloseHandle@4       0040c048     kernel32:KERNEL32.dll
 0002:0000004c       __imp__ReleaseSemaphore@12 0040c04c     kernel32:KERNEL32.dll
 0002:00000050       __imp__WaitForSingleObject@8 0040c050     kernel32:KERNEL32.dll
 0002:00000054       __imp__DeleteCriticalSection@4 0040c054     kernel32:KERNEL32.dll
 0002:00000058       __imp__TryEnterCriticalSection@4 0040c058     kernel32:KERNEL32.dll
 0002:0000005c       __imp__EnterCriticalSection@4 0040c05c     kernel32:KERNEL32.dll
 0002:00000060       __imp__InitializeCriticalSection@4 0040c060     kernel32:KERNEL32.dll
 0002:00000064       __imp__TlsFree@4           0040c064     kernel32:KERNEL32.dll
 0002:00000068       __imp__InterlockedDecrement@4 0040c068     kernel32:KERNEL32.dll
 0002:0000006c       __imp__InterlockedIncrement@4 0040c06c     kernel32:KERNEL32.dll
 0002:00000070       __imp__InterlockedExchange@8 0040c070     kernel32:KERNEL32.dll
 0002:00000074       __imp__GetCurrentThread@0  0040c074     kernel32:KERNEL32.dll
 0002:00000078       __imp__GetCurrentThreadId@0 0040c078     kernel32:KERNEL32.dll
 0002:0000007c       __imp__TlsGetValue@4       0040c07c     kernel32:KERNEL32.dll
 0002:00000080       __imp__TlsSetValue@8       0040c080     kernel32:KERNEL32.dll
 0002:00000084       __imp__TlsAlloc@0          0040c084     kernel32:KERNEL32.dll
 0002:00000088       __imp__GetLastError@0      0040c088     kernel32:KERNEL32.dll
 0002:0000008c       __imp__LeaveCriticalSection@4 0040c08c     kernel32:KERNEL32.dll
 0002:00000090       \177KERNEL32_NULL_THUNK_DATA 0040c090     kernel32:KERNEL32.dll
 0002:00000094       __imp__strncmp             0040c094     MSVCRT:MSVCR90.dll
 0002:00000098       __imp__isxdigit            0040c098     MSVCRT:MSVCR90.dll
 0002:0000009c       __imp__isdigit             0040c09c     MSVCRT:MSVCR90.dll
 0002:000000a0       __imp__strncpy             0040c0a0     MSVCRT:MSVCR90.dll
 0002:000000a4       __imp__longjmp             0040c0a4     MSVCRT:MSVCR90.dll
 0002:000000a8       __imp__rand                0040c0a8     MSVCRT:MSVCR90.dll
 0002:000000ac       __imp__printf              0040c0ac     MSVCRT:MSVCR90.dll
 0002:000000b0       __imp___CIfmod             0040c0b0     MSVCRT:MSVCR90.dll
 0002:000000b4       __imp__malloc              0040c0b4     MSVCRT:MSVCR90.dll
 0002:000000b8       __imp__free                0040c0b8     MSVCRT:MSVCR90.dll
 0002:000000bc       __imp___amsg_exit          0040c0bc     MSVCRT:MSVCR90.dll
 0002:000000c0       __imp____getmainargs       0040c0c0     MSVCRT:MSVCR90.dll
 0002:000000c4       __imp___cexit              0040c0c4     MSVCRT:MSVCR90.dll
 0002:000000c8       __imp___exit               0040c0c8     MSVCRT:MSVCR90.dll
 0002:000000cc       __imp___XcptFilter         0040c0cc     MSVCRT:MSVCR90.dll
 0002:000000d0       __imp__exit                0040c0d0     MSVCRT:MSVCR90.dll
 0002:000000d4       __imp____initenv           0040c0d4     MSVCRT:MSVCR90.dll
 0002:000000d8       __imp___initterm           0040c0d8     MSVCRT:MSVCR90.dll
 0002:000000dc       __imp___initterm_e         0040c0dc     MSVCRT:MSVCR90.dll
 0002:000000e0       __imp___configthreadlocale 0040c0e0     MSVCRT:MSVCR90.dll
 0002:000000e4       __imp____setusermatherr    0040c0e4     MSVCRT:MSVCR90.dll
 0002:000000e8       __imp___adjust_fdiv        0040c0e8     MSVCRT:MSVCR90.dll
 0002:000000ec       __imp____p__commode        0040c0ec     MSVCRT:MSVCR90.dll
 0002:000000f0       __imp____p__fmode          0040c0f0     MSVCRT:MSVCR90.dll
 0002:000000f4       __imp___encode_pointer     0040c0f4     MSVCRT:MSVCR90.dll
 0002:000000f8       __imp____set_app_type      0040c0f8     MSVCRT:MSVCR90.dll
 0002:000000fc       __imp___crt_debugger_hook  0040c0fc     MSVCRT:MSVCR90.dll
 0002:00000100       __imp_?terminate@@YAXXZ    0040c100     MSVCRT:MSVCR90.dll
 0002:00000104       __imp___unlock             0040c104     MSVCRT:MSVCR90.dll
 0002:00000108       __imp____dllonexit         0040c108     MSVCRT:MSVCR90.dll
 0002:0000010c       __imp___lock               0040c10c     MSVCRT:MSVCR90.dll
 0002:00000110       __imp___onexit             0040c110     MSVCRT:MSVCR90.dll
 0002:00000114       __imp___decode_pointer     0040c114     MSVCRT:MSVCR90.dll
 0002:00000118       __imp___except_handler4_common 0040c118     MSVCRT:MSVCR90.dll
 0002:0000011c       __imp___invoke_watson      0040c11c     MSVCRT:MSVCR90.dll
 0002:00000120       __imp___controlfp_s        0040c120     MSVCRT:MSVCR90.dll
 0002:00000124       __imp___vsnprintf          0040c124     MSVCRT:MSVCR90.dll
 0002:00000128       __imp___snprintf           0040c128     MSVCRT:MSVCR90.dll
 0002:0000012c       __imp___setjmp3            0040c12c     MSVCRT:MSVCR90.dll
 0002:00000130       __imp__strchr              0040c130     MSVCRT:MSVCR90.dll
 0002:00000134       __imp__memmove             0040c134     MSVCRT:MSVCR90.dll
 0002:00000138       __imp__memcpy              0040c138     MSVCRT:MSVCR90.dll
 0002:0000013c       __imp__memchr              0040c13c     MSVCRT:MSVCR90.dll
 0002:00000140       __imp__tolower             0040c140     MSVCRT:MSVCR90.dll
 0002:00000144       __imp____iob_func          0040c144     MSVCRT:MSVCR90.dll
 0002:00000148       __imp__fopen               0040c148     MSVCRT:MSVCR90.dll
 0002:0000014c       __imp__fclose              0040c14c     MSVCRT:MSVCR90.dll
 0002:00000150       __imp__puts                0040c150     MSVCRT:MSVCR90.dll
 0002:00000154       __imp__fwrite              0040c154     MSVCRT:MSVCR90.dll
 0002:00000158       __imp__fflush              0040c158     MSVCRT:MSVCR90.dll
 0002:0000015c       __imp__memset              0040c15c     MSVCRT:MSVCR90.dll
 0002:00000160       __imp___strnicmp           0040c160     MSVCRT:MSVCR90.dll
 0002:00000164       \177MSVCR90_NULL_THUNK_DATA 0040c164     MSVCRT:MSVCR90.dll
 0002:00000168       __imp__gethostbyname@4     0040c168     ws2_32:WS2_32.dll
 0002:0000016c       __imp__select@20           0040c16c     ws2_32:WS2_32.dll
 0002:00000170       __imp____WSAFDIsSet@8      0040c170     ws2_32:WS2_32.dll
 0002:00000174       __imp__accept@12           0040c174     ws2_32:WS2_32.dll
 0002:00000178       __imp__connect@12          0040c178     ws2_32:WS2_32.dll
 0002:0000017c       __imp__getsockopt@20       0040c17c     ws2_32:WS2_32.dll
 0002:00000180       __imp__recvfrom@24         0040c180     ws2_32:WS2_32.dll
 0002:00000184       __imp__recv@16             0040c184     ws2_32:WS2_32.dll
 0002:00000188       __imp__sendto@24           0040c188     ws2_32:WS2_32.dll
 0002:0000018c       __imp__send@16             0040c18c     ws2_32:WS2_32.dll
 0002:00000190       __imp__getsockname@12      0040c190     ws2_32:WS2_32.dll
 0002:00000194       __imp__closesocket@4       0040c194     ws2_32:WS2_32.dll
 0002:00000198       __imp__bind@12             0040c198     ws2_32:WS2_32.dll
 0002:0000019c       __imp__WSASocketA@24       0040c19c     ws2_32:WS2_32.dll
 0002:000001a0       __imp__WSAIoctl@36         0040c1a0     ws2_32:WS2_32.dll
 0002:000001a4       __imp__WSAStringToAddressA@20 0040c1a4     ws2_32:WS2_32.dll
 0002:000001a8       __imp__inet_addr@4         0040c1a8     ws2_32:WS2_32.dll
 0002:000001ac       __imp__ntohl@4             0040c1ac     ws2_32:WS2_32.dll
 0002:000001b0       __imp__htons@4             0040c1b0     ws2_32:WS2_32.dll
 0002:000001b4       __imp__ntohs@4             0040c1b4     ws2_32:WS2_32.dll
 0002:000001b8       __imp__WSACleanup@0        0040c1b8     ws2_32:WS2_32.dll
 0002:000001bc       __imp__WSAStartup@8        0040c1bc     ws2_32:WS2_32.dll
 0002:000001c0       __imp__WSAGetLastError@0   0040c1c0     ws2_32:WS2_32.dll
 0002:000001c4       __imp__ioctlsocket@12      0040c1c4     ws2_32:WS2_32.dll
 0002:000001c8       \177WS2_32_NULL_THUNK_DATA 0040c1c8     ws2_32:WS2_32.dll
 0002:000001cc       __imp__CoCreateGuid@4      0040c1cc     ole32:ole32.dll
 0002:000001d0       \177ole32_NULL_THUNK_DATA  0040c1d0     ole32:ole32.dll
 0002:000001d4       ___xc_a                    0040c1d4     MSVCRT:cinitexe.obj
 0002:000001dc       ___xc_z                    0040c1dc     MSVCRT:cinitexe.obj
 0002:000001e0       ___xi_a                    0040c1e0     MSVCRT:cinitexe.obj
 0002:000001f0       ___xi_z                    0040c1f0     MSVCRT:cinitexe.obj
 0002:000001f8       ??_C@_06FKDAMKFP@DELETE?$AA@ 0040c1f8     pjlib-util-i386-win32-vc8-release:http_client.obj
 0002:00000200       ??_C@_03KBBGFLEK@PUT?$AA@  0040c200     pjlib-util-i386-win32-vc8-release:http_client.obj
 0002:00000204       ??_C@_03HAPOJHBM@GET?$AA@  0040c204     pjlib-util-i386-win32-vc8-release:http_client.obj
 0002:00000208       ??_C@_05NJOAAHIE@HTTPS?$AA@ 0040c208     pjlib-util-i386-win32-vc8-release:http_client.obj
 0002:00000210       ??_C@_04MEDPFIKH@HTTP?$AA@ 0040c210     pjlib-util-i386-win32-vc8-release:http_client.obj
 0002:00000220       ??_C@_0BB@JCEFLFJE@0123456789abcdef?$AA@ 0040c220     pjlib-util-i386-win32-vc8-release:http_client.obj
 0002:00000234       ??_C@_06KDHNKGBN@?0?5?7?$AN?6?$DL?$AA@ 0040c234     pjlib-util-i386-win32-vc8-release:http_client.obj
 0002:0000023c       ??_C@_06JFLHDKAJ@?$DN?0?5?7?$AN?6?$AA@ 0040c23c     pjlib-util-i386-win32-vc8-release:http_client.obj
 0002:00000244       ??_C@_04HHCDBDLF@?5?7?$AN?6?$AA@ 0040c244     pjlib-util-i386-win32-vc8-release:http_client.obj
 0002:0000024c       ??_C@_06CJCOLNBB@opaque?$AA@ 0040c24c     pjlib-util-i386-win32-vc8-release:http_client.obj
 0002:00000254       ??_C@_03GBIMBCPB@qop?$AA@  0040c254     pjlib-util-i386-win32-vc8-release:http_client.obj
 0002:00000258       ??_C@_05BFAEFKPM@stale?$AA@ 0040c258     pjlib-util-i386-win32-vc8-release:http_client.obj
 0002:00000260       ??_C@_09JPNFBOJG@algorithm?$AA@ 0040c260     pjlib-util-i386-win32-vc8-release:http_client.obj
 0002:0000026c       ??_C@_05OOEDLKEB@nonce?$AA@ 0040c26c     pjlib-util-i386-win32-vc8-release:http_client.obj
 0002:00000274       ??_C@_05ELABLNGD@realm?$AA@ 0040c274     pjlib-util-i386-win32-vc8-release:http_client.obj
 0002:0000027c       ??_C@_02NDKNKOCB@?3?6?$AA@ 0040c27c     pjlib-util-i386-win32-vc8-release:http_client.obj
 0002:00000280       ??_C@_03HLLJOCDO@1?40?$AA@ 0040c280     pjlib-util-i386-win32-vc8-release:http_client.obj
 0002:00000284       ??_C@_01KMDKNFGN@?1?$AA@   0040c284     pjlib-util-i386-win32-vc8-release:http_client.obj
 0002:00000288       ??_C@_02DLFOHOMG@?3?1?$AA@ 0040c288     pjlib-util-i386-win32-vc8-release:http_client.obj
 0002:0000028c       ??_C@_01EOFPKCAF@?$EA?$AA@ 0040c28c     pjlib-util-i386-win32-vc8-release:http_client.obj
 0002:00000290       ??_C@_02NJDLAJKO@?3?$EA?$AA@ 0040c290     pjlib-util-i386-win32-vc8-release:http_client.obj
 0002:00000294       ??_C@_03GACAABJG@?3?1?1?$AA@ 0040c294     pjlib-util-i386-win32-vc8-release:http_client.obj
 0002:00000298       ??_C@_06FFOGOLGD@Basic?5?$AA@ 0040c298     pjlib-util-i386-win32-vc8-release:http_client.obj
 0002:000002a0       ??_C@_0BE@DCLKKIPG@Proxy?9Authorization?$AA@ 0040c2a0     pjlib-util-i386-win32-vc8-release:http_client.obj
 0002:000002b4       ??_C@_0O@NAFGPKMI@Authorization?$AA@ 0040c2b4     pjlib-util-i386-win32-vc8-release:http_client.obj
 0002:000002c4       ??_C@_01JLIPDDHJ@?3?$AA@   0040c2c4     pjlib-util-i386-win32-vc8-release:http_client.obj
 0002:000002c8       ??_C@_01BJJEKLCA@?$CC?$AA@ 0040c2c8     pjlib-util-i386-win32-vc8-release:http_client.obj
 0002:000002cc       ??_C@_0L@CDFNEOGO@?0?5opaque?$DN?$CC?$AA@ 0040c2cc     pjlib-util-i386-win32-vc8-release:http_client.obj
 0002:000002d8       ??_C@_0IC@MLPPCALJ@Digest?5username?$DN?$CC?$CF?4?$CKs?$CC?0?5realm?$DN?$CC?$CF@ 0040c2d8     pjlib-util-i386-win32-vc8-release:http_client.obj
 0002:0000035c       ??_C@_06DKDPJBDF@b39971?$AA@ 0040c35c     pjlib-util-i386-win32-vc8-release:http_client.obj
 0002:00000364       ??_C@_08KNCPHIAE@00000001?$AA@ 0040c364     pjlib-util-i386-win32-vc8-release:http_client.obj
 0002:00000370       ??_C@_04DPLCCHJC@auth?$AA@ 0040c370     pjlib-util-i386-win32-vc8-release:http_client.obj
 0002:00000378       ??_C@_0GA@DCOGGJGN@Digest?5username?$DN?$CC?$CF?4?$CKs?$CC?0?5realm?$DN?$CC?$CF@ 0040c378     pjlib-util-i386-win32-vc8-release:http_client.obj
 0002:000003d8       ??_C@_03GCGHEHKJ@MD5?$AA@  0040c3d8     pjlib-util-i386-win32-vc8-release:http_client.obj
 0002:000003dc       ??_C@_01GBGANLPD@0?$AA@    0040c3dc     pjlib-util-i386-win32-vc8-release:http_client.obj
 0002:000003e0       ??_C@_0P@HOJGPHBA@Content?9Length?$AA@ 0040c3e0     pjlib-util-i386-win32-vc8-release:http_client.obj
 0002:000003f0       ??_C@_03GCKCNDHP@1?41?$AA@ 0040c3f0     pjlib-util-i386-win32-vc8-release:http_client.obj
 0002:000003f4       ??_C@_0BD@GKJFGNG@Proxy?9Authenticate?$AA@ 0040c3f4     pjlib-util-i386-win32-vc8-release:http_client.obj
 0002:00000408       ??_C@_0BB@KEDJJIFI@WWW?9Authenticate?$AA@ 0040c408     pjlib-util-i386-win32-vc8-release:http_client.obj
 0002:0000041c       ??_C@_02PCIJFNDE@?$AN?6?$AA@ 0040c41c     pjlib-util-i386-win32-vc8-release:http_client.obj
 0002:00000420       ??_C@_0N@DEBBLJNM@?$CF?4?$CKs?3?5?$CF?4?$CKs?$AN?6?$AA@ 0040c420     pjlib-util-i386-win32-vc8-release:http_client.obj
 0002:00000430       ??_C@_08HKGMJBDL@?$CFs?3?5?$CFs?$AN?6?$AA@ 0040c430     pjlib-util-i386-win32-vc8-release:http_client.obj
 0002:0000043c       ??_C@_0BA@HAJMDAOA@Host?3?5?$CF?4?$CKs?3?$CFd?$AN?6?$AA@ 0040c43c     pjlib-util-i386-win32-vc8-release:http_client.obj
 0002:0000044c       ??_C@_0BE@BNEADNJB@?$CF?4?$CKs?5?$CF?4?$CKs?5?$CFs?1?$CF?4?$CKs?$AN?6?$AA@ 0040c44c     pjlib-util-i386-win32-vc8-release:http_client.obj
 0002:00000460       ??_C@_0O@GABNAGKL@http_client?4c?$AA@ 0040c460     pjlib-util-i386-win32-vc8-release:http_client.obj
 0002:00000470       ??_C@_0CF@PPAGDFLF@Unable?5to?5bind?5to?5the?5requested?5@ 0040c470     pjlib-util-i386-win32-vc8-release:http_client.obj
 0002:00000498       ??_C@_06IJPNAHC@digest?$AA@ 0040c498     pjlib-util-i386-win32-vc8-release:http_client.obj
 0002:000004a0       ??_C@_05NPAPGJEJ@basic?$AA@ 0040c4a0     pjlib-util-i386-win32-vc8-release:http_client.obj
 0002:000004a8       ??_C@_0CF@CKMLJLLP@Connection?5lost?5?$CIPJ_CLI_ETELNETL@ 0040c4a8     pjlib-util-i386-win32-vc8-release:errno.obj
 0002:000004d0       ??_C@_0CE@LHHCBFML@Invalid?5XML?5format?5?$CIPJ_CLI_EBADX@ 0040c4d0     pjlib-util-i386-win32-vc8-release:errno.obj
 0002:000004f4       ??_C@_0CK@MKOACJP@Command?5id?5already?5exists?5?$CIPJ_CL@ 0040c4f4     pjlib-util-i386-win32-vc8-release:errno.obj
 0002:00000520       ??_C@_0CO@OOEOBCH@Command?5name?5already?5exists?5?$CIPJ_@ 0040c520     pjlib-util-i386-win32-vc8-release:errno.obj
 0002:00000550       ??_C@_0CC@NLPGOLED@Invalid?5argument?5?$CIPJ_CLI_EINVARG@ 0040c550     pjlib-util-i386-win32-vc8-release:errno.obj
 0002:00000574       ??_C@_0CJ@ECODGDHL@Too?5many?5arguments?5?$CIPJ_CLI_ETOOM@ 0040c574     pjlib-util-i386-win32-vc8-release:errno.obj
 0002:000005a0       ??_C@_0CG@LEDMCEME@Missing?5argument?5?$CIPJ_CLI_EMISSIN@ 0040c5a0     pjlib-util-i386-win32-vc8-release:errno.obj
 0002:000005c8       ??_C@_0CE@DHMMOEGP@Exit?5current?5session?5?$CIPJ_CLI_EEX@ 0040c5c8     pjlib-util-i386-win32-vc8-release:errno.obj
 0002:000005ec       ??_C@_0CH@JNBFBBKA@Connection?5lost?5?$CIPJLIB_UTIL_EHTT@ 0040c5ec     pjlib-util-i386-win32-vc8-release:errno.obj
 0002:00000614       ??_C@_0CN@MKMAKFDH@Insufficient?5buffer?5?$CIPJLIB_UTIL_@ 0040c614     pjlib-util-i386-win32-vc8-release:errno.obj
 0002:00000644       ??_C@_0DN@CABCKELB@Incomplete?5response?5header?5recei@ 0040c644     pjlib-util-i386-win32-vc8-release:errno.obj
 0002:00000684       ??_C@_0DB@BDFJPAOA@Invalid?5URL?5port?5number?5?$CIPJLIB_U@ 0040c684     pjlib-util-i386-win32-vc8-release:errno.obj
 0002:000006b8       ??_C@_0CL@GOOAEBLJ@Invalid?5URL?5format?5?$CIPJLIB_UTIL_E@ 0040c6b8     pjlib-util-i386-win32-vc8-release:errno.obj
 0002:000006e8       ??_C@_0EF@HAPLEMIK@STUN?5transaction?5terminates?5with@ 0040c6e8     pjlib-util-i386-win32-vc8-release:errno.obj
 0002:00000730       ??_C@_0EB@FGOGNHPO@Missing?1stale?5STUN?5NONCE?5attribu@ 0040c730     pjlib-util-i386-win32-vc8-release:errno.obj
 0002:00000774       ??_C@_0DH@MMHMOPBG@Missing?5STUN?5REALM?5attribute?5?$CIPJ@ 0040c774     pjlib-util-i386-win32-vc8-release:errno.obj
 0002:000007ac       ??_C@_0DJ@BCFNCGF@Found?5duplicate?5STUN?5attribute?5?$CI@ 0040c7ac     pjlib-util-i386-win32-vc8-release:errno.obj
 0002:000007e8       ??_C@_0EK@LMHKLKC@Missing?1invalid?5STUN?5MESSAGE?9INT@ 0040c7e8     pjlib-util-i386-win32-vc8-release:errno.obj
 0002:00000834       ??_C@_0DN@JLMAJAKN@Missing?5STUN?5USERNAME?5attribute?5@ 0040c834     pjlib-util-i386-win32-vc8-release:errno.obj
 0002:00000878       ??_C@_0ED@CNMDGMPD@Found?5STUN?5attribute?5after?5FINGE@ 0040c878     pjlib-util-i386-win32-vc8-release:errno.obj
 0002:000008c0       ??_C@_0FA@DIAPLEFD@Found?5non?9FINGERPRINT?5attr?4?5afte@ 0040c8c0     pjlib-util-i386-win32-vc8-release:errno.obj
 0002:00000910       ??_C@_0EI@BNLBFIKH@Unable?5to?5find?5STUN?5handler?5for?5@ 0040c910     pjlib-util-i386-win32-vc8-release:errno.obj
 0002:00000958       ??_C@_0DJ@DDEJFFIL@STUN?5transaction?5ID?5mismatch?5?$CIPJ@ 0040c958     pjlib-util-i386-win32-vc8-release:errno.obj
 0002:00000994       ??_C@_0DO@LEKPMIHP@Expecting?5STUN?5response?5message?5@ 0040c994     pjlib-util-i386-win32-vc8-release:errno.obj
 0002:000009d8       ??_C@_0EA@NAKPKGDE@STUN?5IPv6?5attribute?5not?5supporte@ 0040c9d8     pjlib-util-i386-win32-vc8-release:errno.obj
 0002:00000a18       ??_C@_0DP@PDBNFLFH@Invalid?5STUN?5socket?5address?5leng@ 0040ca18     pjlib-util-i386-win32-vc8-release:errno.obj
 0002:00000a58       ??_C@_0DF@KMIPDCMM@Unknown?5STUN?5attribute?5?$CIPJLIB_UT@ 0040ca58     pjlib-util-i386-win32-vc8-release:errno.obj
 0002:00000a90       ??_C@_0DH@EMGNELGL@Too?5many?5STUN?5attributes?5?$CIPJLIB_@ 0040ca90     pjlib-util-i386-win32-vc8-release:errno.obj
 0002:00000ac8       ??_C@_0EB@GKEHOPAE@DNS?5?$CCThe?5zone?5specified?5is?5not?5a@ 0040cac8     pjlib-util-i386-win32-vc8-release:errno.obj
 0002:00000b0c       ??_C@_0CP@HJODAHHO@DNS?5?$CCNot?5authorized?$CC?5?$CIPJLIB_UTIL@ 0040cb0c     pjlib-util-i386-win32-vc8-release:errno.obj
 0002:00000b40       ??_C@_0EG@OMHMBNML@DNS?5?$CCThe?5RRset?5?$CIname?0?5type?$CJ?5does@ 0040cb40     pjlib-util-i386-win32-vc8-release:errno.obj
 0002:00000b88       ??_C@_0DO@OIIHMCI@DNS?5?$CCThe?5RRset?5?$CIname?0?5type?$CJ?5exis@ 0040cb88     pjlib-util-i386-win32-vc8-release:errno.obj
 0002:00000bc8       ??_C@_0DB@PFAMNHPJ@DNS?5?$CCThe?5name?5exists?$CC?5?$CIPJLIB_UTI@ 0040cbc8     pjlib-util-i386-win32-vc8-release:errno.obj
 0002:00000bfc       ??_C@_0CI@LDMKLLKJ@DNS?5?$CCRefused?$CC?5?$CIPJLIB_UTIL_EDNS_R@ 0040cbfc     pjlib-util-i386-win32-vc8-release:errno.obj
 0002:00000c24       ??_C@_0DA@DIMDKHPM@DNS?5?$CCNot?5Implemented?$CC?5?$CIPJLIB_UTI@ 0040cc24     pjlib-util-i386-win32-vc8-release:errno.obj
 0002:00000c54       ??_C@_0CM@CNNJNBCA@DNS?5?$CCName?5Error?$CC?5?$CIPJLIB_UTIL_EDN@ 0040cc54     pjlib-util-i386-win32-vc8-release:errno.obj
 0002:00000c80       ??_C@_0DA@NBPIIAHM@DNS?5?$CCServer?5failure?$CC?5?$CIPJLIB_UTIL@ 0040cc80     pjlib-util-i386-win32-vc8-release:errno.obj
 0002:00000cb0       ??_C@_0CN@BCAAPMPM@DNS?5?$CCFormat?5error?$CC?5?$CIPJLIB_UTIL_E@ 0040ccb0     pjlib-util-i386-win32-vc8-release:errno.obj
 0002:00000ce0       ??_C@_0CN@DEFBDJKF@Invalid?5DNS?5answer?5?$CIPJLIB_UTIL_E@ 0040cce0     pjlib-util-i386-win32-vc8-release:errno.obj
 0002:00000d10       ??_C@_0EC@HJFBNLFC@No?5answer?5record?5in?5the?5DNS?5resp@ 0040cd10     pjlib-util-i386-win32-vc8-release:errno.obj
 0002:00000d54       ??_C@_0DH@PHJBLCKD@No?5working?5DNS?5nameserver?5?$CIPJLIB@ 0040cd54     pjlib-util-i386-win32-vc8-release:errno.obj
 0002:00000d8c       ??_C@_0DH@LFJGDOHB@No?5nameserver?5is?5in?5DNS?5resolver@ 0040cd8c     pjlib-util-i386-win32-vc8-release:errno.obj
 0002:00000dc4       ??_C@_0DJ@NBOGGJL@Invalid?5DNS?5nameserver?5address?5?$CI@ 0040cdc4     pjlib-util-i386-win32-vc8-release:errno.obj
 0002:00000e00       ??_C@_0DE@FIPILDGP@Invalid?5DNS?5name?5pointer?5?$CIPJLIB_@ 0040ce00     pjlib-util-i386-win32-vc8-release:errno.obj
 0002:00000e34       ??_C@_0CL@OCFDFFNM@Invalid?5DNS?5class?5?$CIPJLIB_UTIL_ED@ 0040ce34     pjlib-util-i386-win32-vc8-release:errno.obj
 0002:00000e60       ??_C@_0DC@JFKHADAC@Invalid?5DNS?5packet?5length?5?$CIPJLIB@ 0040ce60     pjlib-util-i386-win32-vc8-release:errno.obj
 0002:00000e98       ??_C@_0EC@KJLJANIE@DNS?5query?5packet?5buffer?5is?5too?5s@ 0040ce98     pjlib-util-i386-win32-vc8-release:errno.obj
 0002:00000edc       ??_C@_0CL@IPLFEOJE@Invalid?5JSON?5document?5?$CIPJLIB_UTI@ 0040cedc     pjlib-util-i386-win32-vc8-release:errno.obj
 0002:00000f08       ??_C@_0CI@OKGDIDF@Invalid?5XML?5message?5?$CIPJLIB_UTIL_@ 0040cf08     pjlib-util-i386-win32-vc8-release:errno.obj
 0002:00000f30       ??_C@_0DK@OILEGGA@Symetric?5NAT?5detected?5by?5STUN?5?$CIP@ 0040cf30     pjlib-util-i386-win32-vc8-release:errno.obj
 0002:00000f70       ??_C@_0ED@MIOBPJDH@Received?5no?5response?5from?5STUN?5s@ 0040cf70     pjlib-util-i386-win32-vc8-release:errno.obj
 0002:00000fb4       ??_C@_0DJ@BDPKKDEL@No?5STUN?5mapped?5address?5attribute@ 0040cfb4     pjlib-util-i386-win32-vc8-release:errno.obj
 0002:00000ff0       ??_C@_0DM@JJJKHKHH@Received?5STUN?5error?5attribute?5?$CIP@ 0040cff0     pjlib-util-i386-win32-vc8-release:errno.obj
 0002:00001030       ??_C@_0EE@OMBAKMPD@No?5STUN?5binding?5response?5in?5the?5@ 0040d030     pjlib-util-i386-win32-vc8-release:errno.obj
 0002:00001074       ??_C@_0DL@JFEBBJAB@Invalid?5STUN?5server?1socket?5index@ 0040d074     pjlib-util-i386-win32-vc8-release:errno.obj
 0002:000010b0       ??_C@_0DJ@GEFJCPHI@Invalid?5STUN?5attribute?5type?5?$CIPJL@ 0040d0b0     pjlib-util-i386-win32-vc8-release:errno.obj
 0002:000010ec       ??_C@_0DI@MNKBLDCO@STUN?5attribute?5length?5error?5?$CIPJL@ 0040d0ec     pjlib-util-i386-win32-vc8-release:errno.obj
 0002:00001124       ??_C@_0DH@BGLGMNML@Invalid?5STUN?5message?5length?5?$CIPJL@ 0040d124     pjlib-util-i386-win32-vc8-release:errno.obj
 0002:0000115c       ??_C@_0DG@MLIAHJMC@Unknown?5STUN?5message?5type?5?$CIPJLIB@ 0040d15c     pjlib-util-i386-win32-vc8-release:errno.obj
 0002:00001194       ??_C@_0DI@FPKNFLPC@Unable?5to?5resolve?5STUN?5server?5?$CIP@ 0040d194     pjlib-util-i386-win32-vc8-release:errno.obj
 0002:000013b0       ??_C@_0BM@LDLEGOFO@Unknown?5pjlib?9util?5error?5?$CFd?$AA@ 0040d3b0     pjlib-util-i386-win32-vc8-release:errno.obj
 0002:000013cc       ??_C@_0BM@HBCIEFJJ@?4?4?2src?2pjlib?9util?2scanner?4c?$AA@ 0040d3cc     pjlib-util-i386-win32-vc8-release:scanner.obj
 0002:00001428       ??_C@_0BD@ELEDKDKB@?4?4?2src?2pj?2string?4c?$AA@ 0040d428     pjlib-i386-win32-vc8-release:string.obj
 0002:0000143c       ??_C@_03FEFJNEK@Sat?$AA@   0040d43c     pjlib-i386-win32-vc8-release:log.obj
 0002:00001440       ??_C@_03IDIOELNC@Fri?$AA@  0040d440     pjlib-i386-win32-vc8-release:log.obj
 0002:00001444       ??_C@_03IOFIKPDN@Thu?$AA@  0040d444     pjlib-i386-win32-vc8-release:log.obj
 0002:00001448       ??_C@_03MHOMLAJA@Wed?$AA@  0040d448     pjlib-i386-win32-vc8-release:log.obj
 0002:0000144c       ??_C@_03NAGEINEP@Tue?$AA@  0040d44c     pjlib-i386-win32-vc8-release:log.obj
 0002:00001450       ??_C@_03PDAGKDH@Mon?$AA@   0040d450     pjlib-i386-win32-vc8-release:log.obj
 0002:00001454       ??_C@_03KOEHGMDN@Sun?$AA@  0040d454     pjlib-i386-win32-vc8-release:log.obj
 0002:00001458       ??_C@_06HGKAKJPG@DETRC?3?$AA@ 0040d458     pjlib-i386-win32-vc8-release:log.obj
 0002:00001460       ??_C@_06ELIFFDKB@TRACE?3?$AA@ 0040d460     pjlib-i386-win32-vc8-release:log.obj
 0002:00001468       ??_C@_06DNOFLLB@DEBUG?3?$AA@ 0040d468     pjlib-i386-win32-vc8-release:log.obj
 0002:00001470       ??_C@_06ICKKLHPE@?5INFO?3?$AA@ 0040d470     pjlib-i386-win32-vc8-release:log.obj
 0002:00001478       ??_C@_06OHJPOJDB@?5WARN?3?$AA@ 0040d478     pjlib-i386-win32-vc8-release:log.obj
 0002:00001480       ??_C@_06PONDCDME@ERROR?3?$AA@ 0040d480     pjlib-i386-win32-vc8-release:log.obj
 0002:00001488       ??_C@_06DDFOEFIF@FATAL?3?$AA@ 0040d488     pjlib-i386-win32-vc8-release:log.obj
 0002:00001490       ??_C@_0BO@BGMDCDKP@?$DMlogging?5error?3?5msg?5too?5long?$DO?$AA@ 0040d490     pjlib-i386-win32-vc8-release:log.obj
 0002:000014b0       ??_C@_0BA@CLLJDBF@?4?4?2src?2pj?2log?4c?$AA@ 0040d4b0     pjlib-i386-win32-vc8-release:log.obj
 0002:000014c0       ??_C@_0CI@LBHALONI@Socket?5is?5in?5bad?5state?5?$CIPJ_ESOCK@ 0040d4c0     pjlib-i386-win32-vc8-release:errno.obj
 0002:000014e8       ??_C@_0CD@PDGCJOJH@Object?5no?5longer?5exists?5?$CIPJ_EGON@ 0040d4e8     pjlib-i386-win32-vc8-release:errno.obj
 0002:0000150c       ??_C@_0CK@DJAHHNOI@Unsupported?5address?5family?5?$CIPJ_E@ 0040d50c     pjlib-i386-win32-vc8-release:errno.obj
 0002:00001538       ??_C@_0CH@OGOOBJBE@IPv6?5is?5not?5supported?5?$CIPJ_EIPV6N@ 0040d538     pjlib-i386-win32-vc8-release:errno.obj
 0002:00001560       ??_C@_0BG@NBDJGAFI@Ignored?5?$CIPJ_EIGNORED?$CJ?$AA@ 0040d560     pjlib-i386-win32-vc8-release:errno.obj
 0002:00001578       ??_C@_0CB@MGGLJMNO@Size?5is?5too?5short?5?$CIPJ_ETOOSMALL?$CJ@ 0040d578     pjlib-i386-win32-vc8-release:errno.obj
 0002:0000159c       ??_C@_0DB@FDCHLEID@gethostbyname?$CI?$CJ?5has?5returned?5err@ 0040d59c     pjlib-i386-win32-vc8-release:errno.obj
 0002:000015d0       ??_C@_0BN@PCCNBFLN@Size?5is?5too?5big?5?$CIPJ_ETOOBIG?$CJ?$AA@ 0040d5d0     pjlib-i386-win32-vc8-release:errno.obj
 0002:000015f0       ??_C@_0BG@GMBDFNLN@End?5of?5file?5?$CIPJ_EEOF?$CJ?$AA@ 0040d5f0     pjlib-i386-win32-vc8-release:errno.obj
 0002:00001608       ??_C@_0CD@LODOFNLC@Object?5already?5exists?5?$CIPJ_EEXIST@ 0040d608     pjlib-i386-win32-vc8-release:errno.obj
 0002:0000162c       ??_C@_0CE@KDDMJLGF@Operation?5cancelled?5?$CIPJ_ECANCELL@ 0040d62c     pjlib-i386-win32-vc8-release:errno.obj
 0002:00001650       ??_C@_0CC@OEEEEEML@Invalid?5operation?5?$CIPJ_EINVALIDOP@ 0040d650     pjlib-i386-win32-vc8-release:errno.obj
 0002:00001674       ??_C@_0CP@BAIBJOJE@Option?1operation?5is?5not?5supporte@ 0040d674     pjlib-i386-win32-vc8-release:errno.obj
 0002:000016a4       ??_C@_0BK@OMPILOH@Object?5is?5busy?5?$CIPJ_EBUSY?$CJ?$AA@ 0040d6a4     pjlib-i386-win32-vc8-release:errno.obj
 0002:000016c0       ??_C@_0DF@MIFNAIHL@Too?5many?5objects?5of?5the?5specifie@ 0040d6c0     pjlib-i386-win32-vc8-release:errno.obj
 0002:000016f8       ??_C@_0CD@JOGIDHPJ@Operation?5timed?5out?5?$CIPJ_ETIMEDOU@ 0040d6f8     pjlib-i386-win32-vc8-release:errno.obj
 0002:0000171c       ??_C@_0BI@HHGDCAID@BUG?5DETECTED?$CB?5?$CIPJ_EBUG?$CJ?$AA@ 0040d71c     pjlib-i386-win32-vc8-release:errno.obj
 0002:00001734       ??_C@_0BO@GOLCMJKK@Not?5enough?5memory?5?$CIPJ_ENOMEM?$CJ?$AA@ 0040d734     pjlib-i386-win32-vc8-release:errno.obj
 0002:00001754       ??_C@_0BJ@JNKLPII@Not?5found?5?$CIPJ_ENOTFOUND?$CJ?$AA@ 0040d754     pjlib-i386-win32-vc8-release:errno.obj
 0002:00001770       ??_C@_0CA@GJABNEKD@Name?5too?5long?5?$CIPJ_ENAMETOOLONG?$CJ?$AA@ 0040d770     pjlib-i386-win32-vc8-release:errno.obj
 0002:00001790       ??_C@_0CG@CBCJBJGD@Invalid?5value?5or?5argument?5?$CIPJ_EI@ 0040d790     pjlib-i386-win32-vc8-release:errno.obj
 0002:000017b8       ??_C@_0CO@GABEOAFF@Too?5many?5connecting?5sockets?5?$CIPJ_@ 0040d7b8     pjlib-i386-win32-vc8-release:errno.obj
 0002:000017e8       ??_C@_0CA@DCLOOJGD@Pending?5operation?5?$CIPJ_EPENDING?$CJ?$AA@ 0040d7e8     pjlib-i386-win32-vc8-release:errno.obj
 0002:00001808       ??_C@_0BM@FLPPOGAG@Unknown?5Error?5?$CIPJ_EUNKNOWN?$CJ?$AA@ 0040d808     pjlib-i386-win32-vc8-release:errno.obj
 0002:000018e8       ??_C@_0BH@ONDLFCEA@Unknown?5pjlib?5error?5?$CFd?$AA@ 0040d8e8     pjlib-i386-win32-vc8-release:errno.obj
 0002:00001900       ??_C@_0BB@BIKLJNJD@Unknown?5error?5?$CFd?$AA@ 0040d900     pjlib-i386-win32-vc8-release:errno.obj
 0002:00001914       ??_C@_07PBILKAFL@Success?$AA@ 0040d914     pjlib-i386-win32-vc8-release:errno.obj
 0002:0000191c       ??_C@_06DJHOIPC@?$CFs?3?5?$CFs?$AA@ 0040d91c     pjlib-i386-win32-vc8-release:errno.obj
 0002:00001924       ??_C@_05NAOIJFC@Error?$AA@ 0040d924     pjlib-i386-win32-vc8-release:errno.obj
 0002:0000192c       ??_C@_0BB@PKFOFEEC@?4?4?2src?2pj?2pool?4c?$AA@ 0040d92c     pjlib-i386-win32-vc8-release:pool.obj
 0002:00001940       ??_C@_0BC@IICDBALP@?4?4?2src?2pj?2timer?4c?$AA@ 0040d940     pjlib-i386-win32-vc8-release:timer.obj
 0002:00001954       ??_C@_05PHKAINEA@pjlib?$AA@ 0040d954     pjlib-i386-win32-vc8-release:ioqueue_select.obj
 0002:0000195c       ??_C@_0CA@IMDCINDN@select?$CI?$CJ?5I?1O?5Queue?5created?5?$CI?$CFp?$CJ?$AA@ 0040d95c     pjlib-i386-win32-vc8-release:ioqueue_select.obj
 0002:0000197c       ??_C@_05LIJONKFG@ioq?$CFp?$AA@ 0040d97c     pjlib-i386-win32-vc8-release:ioqueue_select.obj
 0002:00001988       ??_C@_0GA@CHOIEMJD@g?3?2360?5sync?2work?2computer?5networ@ 0040d988     pjlib-i386-win32-vc8-release:ioqueue_select.obj
 0002:000019e8       ??_C@_05KHEDLION@thr?$CFp?$AA@ 0040d9e8     pjlib-i386-win32-vc8-release:os_core_win32.obj
 0002:000019f0       ??_C@_0BK@BHGJHPMG@?4?4?2src?2pj?2os_core_win32?4c?$AA@ 0040d9f0     pjlib-i386-win32-vc8-release:os_core_win32.obj
 0002:00001a0c       ??_C@_05EJDHHBFJ@mtx?$CFp?$AA@ 0040da0c     pjlib-i386-win32-vc8-release:os_core_win32.obj
 0002:00001a14       ??_C@_0BA@FNCACAIG@os_core_win32?4c?$AA@ 0040da14     pjlib-i386-win32-vc8-release:os_core_win32.obj
 0002:00001a24       ??_C@_0BP@NGEKBPIB@pjlib?5?$CFs?5for?5win32?5initialized?$AA@ 0040da24     pjlib-i386-win32-vc8-release:os_core_win32.obj
 0002:00001a44       ??_C@_0BA@NGJFHJA@PJLIB?1No?5memory?$AA@ 0040da44     pjlib-i386-win32-vc8-release:os_core_win32.obj
 0002:00001a54       ??_C@_04IFCNACLH@pj?$CFp?$AA@ 0040da54     pjlib-i386-win32-vc8-release:os_core_win32.obj
 0002:00001a5c       ??_C@_0CI@EAKIIBBA@Main?5thread?5stack?5max?5usage?$DN?$CFu?5b@ 0040da5c     pjlib-i386-win32-vc8-release:os_core_win32.obj
 0002:00001a84       ??_C@_00CNPNBAHC@?$AA@     0040da84     pjlib-i386-win32-vc8-release:os_core_win32.obj
 0002:00001a88       ??_C@_0M@IGFPEOLJ@cachingpool?$AA@ 0040da88     pjlib-i386-win32-vc8-release:pool_caching.obj
 0002:00001a94       ??_C@_0DD@ECGDPCBA@Pool?5is?5not?5released?5by?5applicat@ 0040da94     pjlib-i386-win32-vc8-release:pool_caching.obj
 0002:00001ac8       ??_C@_0BJ@MJKAJPML@?4?4?2src?2pj?2pool_caching?4c?$AA@ 0040dac8     pjlib-i386-win32-vc8-release:pool_caching.obj
 0002:00001ae4       ??_C@_0CB@GKBJPDKG@?5?5Total?5?$CF9d?5of?5?$CF9d?5?$CI?$CFd?5?$CF?$CF?$CJ?5used?$CB@ 0040dae4     pjlib-i386-win32-vc8-release:pool_caching.obj
 0002:00001b08       ??_C@_0CA@MMLIKIEG@?5?5?5?$CF16s?3?5?$CF8d?5of?5?$CF8d?5?$CI?$CFd?$CF?$CF?$CJ?5used?$AA@ 0040db08     pjlib-i386-win32-vc8-release:pool_caching.obj
 0002:00001b28       ??_C@_0BM@IDLDGCC@?5?5Dumping?5all?5active?5pools?3?$AA@ 0040db28     pjlib-i386-win32-vc8-release:pool_caching.obj
 0002:00001b44       ??_C@_0CN@DOKPIIOH@?5?5?5Capacity?$DN?$CFu?0?5max_capacity?$DN?$CFu?0@ 0040db44     pjlib-i386-win32-vc8-release:pool_caching.obj
 0002:00001b74       ??_C@_08COPEICHG@cachpool?$AA@ 0040db74     pjlib-i386-win32-vc8-release:pool_caching.obj
 0002:00001b80       ??_C@_0BH@BBPHJKOA@?5Dumping?5caching?5pool?3?$AA@ 0040db80     pjlib-i386-win32-vc8-release:pool_caching.obj
 0002:00001b98       ??_C@_0N@GJOLEKJC@?$DMInvalid?5ID?$DO?$AA@ 0040db98     pjlib-i386-win32-vc8-release:except.obj
 0002:00001ba8       ??_C@_0N@LJPLLMIL@exception?5?$CFd?$AA@ 0040dba8     pjlib-i386-win32-vc8-release:except.obj
 0002:00001bb8       ??_C@_08PDFMOJIE@except?4c?$AA@ 0040dbb8     pjlib-i386-win32-vc8-release:except.obj
 0002:00001bc4       ??_C@_0CD@KFHCCJFN@?$CB?$CB?$CBFATAL?3?5unhandled?5exception?5?$CFs@ 0040dbc4     pjlib-i386-win32-vc8-release:except.obj
 0002:00001be8       ??_C@_0BC@OIAJPKFB@?4?4?2src?2pj?2types?4c?$AA@ 0040dbe8     pjlib-i386-win32-vc8-release:types.obj
 0002:00001bfc       _PJ_AF_UNSPEC              0040dbfc     pjlib-i386-win32-vc8-release:sock_bsd.obj
 0002:00001c00       _PJ_AF_UNIX                0040dc00     pjlib-i386-win32-vc8-release:sock_bsd.obj
 0002:00001c04       _PJ_AF_INET                0040dc04     pjlib-i386-win32-vc8-release:sock_bsd.obj
 0002:00001c08       _PJ_AF_INET6               0040dc08     pjlib-i386-win32-vc8-release:sock_bsd.obj
 0002:00001c0c       _PJ_AF_PACKET              0040dc0c     pjlib-i386-win32-vc8-release:sock_bsd.obj
 0002:00001c10       _PJ_AF_IRDA                0040dc10     pjlib-i386-win32-vc8-release:sock_bsd.obj
 0002:00001c14       _PJ_SOCK_STREAM            0040dc14     pjlib-i386-win32-vc8-release:sock_bsd.obj
 0002:00001c18       _PJ_SOCK_DGRAM             0040dc18     pjlib-i386-win32-vc8-release:sock_bsd.obj
 0002:00001c1c       _PJ_SOCK_RAW               0040dc1c     pjlib-i386-win32-vc8-release:sock_bsd.obj
 0002:00001c20       _PJ_SOCK_RDM               0040dc20     pjlib-i386-win32-vc8-release:sock_bsd.obj
 0002:00001c24       _PJ_SOL_SOCKET             0040dc24     pjlib-i386-win32-vc8-release:sock_bsd.obj
 0002:00001c28       _PJ_SOL_IP                 0040dc28     pjlib-i386-win32-vc8-release:sock_bsd.obj
 0002:00001c2c       _PJ_SOL_TCP                0040dc2c     pjlib-i386-win32-vc8-release:sock_bsd.obj
 0002:00001c30       _PJ_SOL_UDP                0040dc30     pjlib-i386-win32-vc8-release:sock_bsd.obj
 0002:00001c34       _PJ_SOL_IPV6               0040dc34     pjlib-i386-win32-vc8-release:sock_bsd.obj
 0002:00001c38       _PJ_IP_TOS                 0040dc38     pjlib-i386-win32-vc8-release:sock_bsd.obj
 0002:00001c3c       _PJ_IPTOS_LOWDELAY         0040dc3c     pjlib-i386-win32-vc8-release:sock_bsd.obj
 0002:00001c40       _PJ_IPTOS_THROUGHPUT       0040dc40     pjlib-i386-win32-vc8-release:sock_bsd.obj
 0002:00001c44       _PJ_IPTOS_RELIABILITY      0040dc44     pjlib-i386-win32-vc8-release:sock_bsd.obj
 0002:00001c48       _PJ_IPTOS_MINCOST          0040dc48     pjlib-i386-win32-vc8-release:sock_bsd.obj
 0002:00001c4c       _PJ_SO_TYPE                0040dc4c     pjlib-i386-win32-vc8-release:sock_bsd.obj
 0002:00001c50       _PJ_SO_RCVBUF              0040dc50     pjlib-i386-win32-vc8-release:sock_bsd.obj
 0002:00001c54       _PJ_SO_SNDBUF              0040dc54     pjlib-i386-win32-vc8-release:sock_bsd.obj
 0002:00001c58       _PJ_TCP_NODELAY            0040dc58     pjlib-i386-win32-vc8-release:sock_bsd.obj
 0002:00001c5c       _PJ_SO_REUSEADDR           0040dc5c     pjlib-i386-win32-vc8-release:sock_bsd.obj
 0002:00001c60       _PJ_SO_NOSIGPIPE           0040dc60     pjlib-i386-win32-vc8-release:sock_bsd.obj
 0002:00001c64       _PJ_SO_PRIORITY            0040dc64     pjlib-i386-win32-vc8-release:sock_bsd.obj
 0002:00001c68       _PJ_IP_MULTICAST_IF        0040dc68     pjlib-i386-win32-vc8-release:sock_bsd.obj
 0002:00001c6c       _PJ_IP_MULTICAST_TTL       0040dc6c     pjlib-i386-win32-vc8-release:sock_bsd.obj
 0002:00001c70       _PJ_IP_MULTICAST_LOOP      0040dc70     pjlib-i386-win32-vc8-release:sock_bsd.obj
 0002:00001c74       _PJ_IP_ADD_MEMBERSHIP      0040dc74     pjlib-i386-win32-vc8-release:sock_bsd.obj
 0002:00001c78       _PJ_IP_DROP_MEMBERSHIP     0040dc78     pjlib-i386-win32-vc8-release:sock_bsd.obj
 0002:00001c7c       _PJ_MSG_OOB                0040dc7c     pjlib-i386-win32-vc8-release:sock_bsd.obj
 0002:00001c80       _PJ_MSG_PEEK               0040dc80     pjlib-i386-win32-vc8-release:sock_bsd.obj
 0002:00001c84       _PJ_MSG_DONTROUTE          0040dc84     pjlib-i386-win32-vc8-release:sock_bsd.obj
 0002:00001c88       ??_C@_0BF@KBJNEAPB@?4?4?2src?2pj?2sock_bsd?4c?$AA@ 0040dc88     pjlib-i386-win32-vc8-release:sock_bsd.obj
 0002:00001ca0       ??_C@_0GB@HHNNKDBF@Received?5?$CFd?5consecutive?5errors?3?5@ 0040dca0     pjlib-i386-win32-vc8-release:activesock.obj
 0002:00001d04       ??_C@_0BI@IIPAIKDD@?4?4?2src?2pj?2sock_common?4c?$AA@ 0040dd04     pjlib-i386-win32-vc8-release:sock_common.obj
 0002:00001d1c       ??_C@_0BB@KPBPCFEE@?4?4?2src?2pj?2rand?4c?$AA@ 0040dd1c     pjlib-i386-win32-vc8-release:rand.obj
 0002:00001d30       ??_C@_02DKCKIIND@?$CFs?$AA@ 0040dd30     pjlib-i386-win32-vc8-release:log_writer_stdout.obj
 0002:00001d34       ??_C@_0BO@KBBNBAFA@?4?4?2src?2pj?2log_writer_stdout?4c?$AA@ 0040dd34     pjlib-i386-win32-vc8-release:log_writer_stdout.obj
 0002:00001d54       ??_C@_0DB@KFPHELLI@No?5host?5data?5of?5that?5type?5was?5fo@ 0040dd54     pjlib-i386-win32-vc8-release:os_error_win32.obj
 0002:00001d88       ??_C@_0CD@OEALOMDH@Host?5not?5found?5?$CIWSAHOST_NOT_FOUN@ 0040dd88     pjlib-i386-win32-vc8-release:os_error_win32.obj
 0002:00001dac       ??_C@_0CL@GFDHEKLB@Graceful?5shutdown?5in?5progress?5?$CIW@ 0040ddac     pjlib-i386-win32-vc8-release:os_error_win32.obj
 0002:00001dd8       ??_C@_0CO@HPDHHDHA@WSAStartup?5not?5yet?5called?5?$CIWSANO@ 0040ddd8     pjlib-i386-win32-vc8-release:os_error_win32.obj
 0002:00001e08       ??_C@_0DC@BLAKHMMJ@Winsock?5version?5out?5of?5range?5?$CIWS@ 0040de08     pjlib-i386-win32-vc8-release:os_error_win32.obj
 0002:00001e3c       ??_C@_0CP@IBAEMKGH@Network?5system?5is?5unavailable?5?$CIW@ 0040de3c     pjlib-i386-win32-vc8-release:os_error_win32.obj
 0002:00001e6c       ??_C@_0CP@MLAFGPOA@Too?5many?5levels?5of?5remote?5in?5pat@ 0040de6c     pjlib-i386-win32-vc8-release:os_error_win32.obj
 0002:00001e9c       ??_C@_0CC@IMLIDHNH@Stale?5NFS?5file?5handle?5?$CIWSAESTALE@ 0040de9c     pjlib-i386-win32-vc8-release:os_error_win32.obj
 0002:00001ec0       ??_C@_0CA@MIOFDKMA@Disc?5quota?5exceeded?5?$CIWSAEDQUOT?$CJ?$AA@ 0040dec0     pjlib-i386-win32-vc8-release:os_error_win32.obj
 0002:00001ee0       ??_C@_0BL@IGHJMJKO@Too?5many?5users?5?$CIWSAEUSERS?$CJ?$AA@ 0040dee0     pjlib-i386-win32-vc8-release:os_error_win32.obj
 0002:00001efc       ??_C@_0CB@GPCGLHOJ@Too?5many?5processes?5?$CIWSAEPROCLIM?$CJ@ 0040defc     pjlib-i386-win32-vc8-release:os_error_win32.obj
 0002:00001f20       ??_C@_0CD@NEFLEHEG@Directory?5not?5empty?5?$CIWSAENOTEMPT@ 0040df20     pjlib-i386-win32-vc8-release:os_error_win32.obj
 0002:00001f44       ??_C@_0CD@ECJOJHBH@No?5route?5to?5host?5?$CIWSAEHOSTUNREAC@ 0040df44     pjlib-i386-win32-vc8-release:os_error_win32.obj
 0002:00001f68       ??_C@_0BM@NCJCEEDP@Host?5is?5down?5?$CIWSAEHOSTDOWN?$CJ?$AA@ 0040df68     pjlib-i386-win32-vc8-release:os_error_win32.obj
 0002:00001f84       ??_C@_0CF@MOFKOMBB@File?5name?5too?5long?5?$CIWSAENAMETOOL@ 0040df84     pjlib-i386-win32-vc8-release:os_error_win32.obj
 0002:00001fac       ??_C@_0CN@FCKBNFMB@Too?5many?5levels?5of?5symbolic?5link@ 0040dfac     pjlib-i386-win32-vc8-release:os_error_win32.obj
 0002:00001fdc       ??_C@_0CF@JMKFBJH@Connection?5refused?5?$CIWSAECONNREFU@ 0040dfdc     pjlib-i386-win32-vc8-release:os_error_win32.obj
 0002:00002004       ??_C@_0CE@IIKHBGF@Connection?5timed?5out?5?$CIWSAETIMEDO@ 0040e004     pjlib-i386-win32-vc8-release:os_error_win32.obj
 0002:00002028       ??_C@_0DE@CAILNFFE@Too?5many?5references?0?5can?8t?5splic@ 0040e028     pjlib-i386-win32-vc8-release:os_error_win32.obj
 0002:0000205c       ??_C@_0DA@JGJMJPNM@Can?8t?5send?5after?5socket?5shutdown@ 0040e05c     pjlib-i386-win32-vc8-release:os_error_win32.obj
 0002:0000208c       ??_C@_0CG@CECDMHLL@Socket?5is?5not?5connected?5?$CIWSAENOT@ 0040e08c     pjlib-i386-win32-vc8-release:os_error_win32.obj
 0002:000020b4       ??_C@_0CJ@JOPBNNOD@Socket?5is?5already?5connected?5?$CIWSA@ 0040e0b4     pjlib-i386-win32-vc8-release:os_error_win32.obj
 0002:000020e0       ??_C@_0CH@EKNGIMKN@No?5buffer?5space?5available?5?$CIWSAEN@ 0040e0e0     pjlib-i386-win32-vc8-release:os_error_win32.obj
 0002:00002108       ??_C@_0CJ@PJHCFAAN@Connection?5reset?5by?5peer?5?$CIWSAECO@ 0040e108     pjlib-i386-win32-vc8-release:os_error_win32.obj
 0002:00002134       ??_C@_0DD@PGDIHOBG@Software?5caused?5connection?5abort@ 0040e134     pjlib-i386-win32-vc8-release:os_error_win32.obj
 0002:00002168       ??_C@_0CE@LJEEEFEC@Net?5connection?5reset?5?$CIWSAENETRES@ 0040e168     pjlib-i386-win32-vc8-release:os_error_win32.obj
 0002:0000218c       ??_C@_0CI@NKJAACME@Network?5is?5unreachable?5?$CIWSAENETU@ 0040e18c     pjlib-i386-win32-vc8-release:os_error_win32.obj
 0002:000021b4       ??_C@_0BO@IICKDHLJ@Network?5is?5down?5?$CIWSAENETDOWN?$CJ?$AA@ 0040e1b4     pjlib-i386-win32-vc8-release:os_error_win32.obj
 0002:000021d4       ??_C@_0DC@FJJPJPOD@Can?8t?5assign?5requested?5address?5?$CI@ 0040e1d4     pjlib-i386-win32-vc8-release:os_error_win32.obj
 0002:00002208       ??_C@_0CH@OCKNFBKE@Address?5already?5in?5use?5?$CIWSAEADDR@ 0040e208     pjlib-i386-win32-vc8-release:os_error_win32.obj
 0002:00002230       ??_C@_0CP@MMKHGIFC@Address?5family?5not?5supported?5?$CIWS@ 0040e230     pjlib-i386-win32-vc8-release:os_error_win32.obj
 0002:00002260       ??_C@_0DA@GFNBENIG@Protocol?5family?5not?5supported?5?$CIW@ 0040e260     pjlib-i386-win32-vc8-release:os_error_win32.obj
 0002:00002290       ??_C@_0DC@GJMFANID@Operation?5not?5supported?5on?5socke@ 0040e290     pjlib-i386-win32-vc8-release:os_error_win32.obj
 0002:000022c4       ??_C@_0CP@JLBNHCOL@Socket?5type?5not?5supported?5?$CIWSAES@ 0040e2c4     pjlib-i386-win32-vc8-release:os_error_win32.obj
 0002:000022f4       ??_C@_0CM@HPGHEHCE@Protocol?5not?5supported?5?$CIWSAEPROT@ 0040e2f4     pjlib-i386-win32-vc8-release:os_error_win32.obj
 0002:00002320       ??_C@_0CF@HNFLHOHA@Bad?5protocol?5option?5?$CIWSAENOPROTO@ 0040e320     pjlib-i386-win32-vc8-release:os_error_win32.obj
 0002:00002348       ??_C@_0CP@MMIMIEMF@Protocol?5wrong?5type?5for?5socket?5?$CI@ 0040e348     pjlib-i386-win32-vc8-release:os_error_win32.obj
 0002:00002378       ??_C@_0BP@LNFPBFEK@Message?5too?5long?5?$CIWSAEMSGSIZE?$CJ?$AA@ 0040e378     pjlib-i386-win32-vc8-release:os_error_win32.obj
 0002:00002398       ??_C@_0CP@HCDICECK@Destination?5address?5required?5?$CIWS@ 0040e398     pjlib-i386-win32-vc8-release:os_error_win32.obj
 0002:000023c8       ??_C@_0CN@PAFKDEBN@Socket?5operation?5on?5non?9socket?5?$CI@ 0040e3c8     pjlib-i386-win32-vc8-release:os_error_win32.obj
 0002:000023f8       ??_C@_0CM@BEMCBKDH@Operation?5already?5in?5progress?5?$CIW@ 0040e3f8     pjlib-i386-win32-vc8-release:os_error_win32.obj
 0002:00002424       ??_C@_0CL@DKGHEPCD@Operation?5now?5in?5progress?5?$CIWSAEI@ 0040e424     pjlib-i386-win32-vc8-release:os_error_win32.obj
 0002:00002450       ??_C@_0CH@GCPPFMGM@Operation?5would?5block?5?$CIWSAEWOULD@ 0040e450     pjlib-i386-win32-vc8-release:os_error_win32.obj
 0002:00002478       ??_C@_0CC@HMKKNDGL@Too?5many?5open?5sockets?5?$CIWSAEMFILE@ 0040e478     pjlib-i386-win32-vc8-release:os_error_win32.obj
 0002:0000249c       ??_C@_0BN@FEIDINKH@Invalid?5argument?5?$CIWSAEINVAL?$CJ?$AA@ 0040e49c     pjlib-i386-win32-vc8-release:os_error_win32.obj
 0002:000024bc       ??_C@_0BI@LAKHPJJ@Bad?5address?5?$CIWSAEFAULT?$CJ?$AA@ 0040e4bc     pjlib-i386-win32-vc8-release:os_error_win32.obj
 0002:000024d4       ??_C@_0BO@BMBEEPBP@Permission?5denied?5?$CIWSAEACCES?$CJ?$AA@ 0040e4d4     pjlib-i386-win32-vc8-release:os_error_win32.obj
 0002:000024f4       ??_C@_0BL@OKPDNKLH@Bad?5file?5number?5?$CIWSAEBADF?$CJ?$AA@ 0040e4f4     pjlib-i386-win32-vc8-release:os_error_win32.obj
 0002:00002510       ??_C@_0CD@FNMHLHMI@Interrupted?5system?5call?5?$CIWSAEINT@ 0040e510     pjlib-i386-win32-vc8-release:os_error_win32.obj
 0002:000026c8       ??_C@_0BE@JPHLLAEM@Win32?5error?5code?5?$CFu?$AA@ 0040e6c8     pjlib-i386-win32-vc8-release:os_error_win32.obj
 0002:000026e0       __real@408f400000000000    0040e6e0     pjlib-i386-win32-vc8-release:os_timestamp_common.obj
 0002:000026e8       ??_C@_0BI@FIAAHKJ@?4?4?2src?2pj?2sock_select?4c?$AA@ 0040e6e8     pjlib-i386-win32-vc8-release:sock_select.obj
 0002:00002700       ??_C@_05COGJMIFA@2?45?45?$AA@ 0040e700     pjlib-i386-win32-vc8-release:config.obj
 0002:00002708       ??_C@_08DOCHLGNA@config?4c?$AA@ 0040e708     pjlib-i386-win32-vc8-release:config.obj
 0002:00002714       _PJ_GUID_STRING_LENGTH     0040e714     pjlib-i386-win32-vc8-release:guid_win32.obj
 0002:00002718       ??_C@_0BH@DLOCENPK@?4?4?2src?2pj?2guid_win32?4c?$AA@ 0040e718     pjlib-i386-win32-vc8-release:guid_win32.obj
 0002:00002730       ??_C@_0BP@JMMENEAD@?4?4?2src?2pj?2pool_policy_malloc?4c?$AA@ 0040e730     pjlib-i386-win32-vc8-release:pool_policy_malloc.obj
 0002:00002758       __load_config_used         0040e758     MSVCRT:loadcfg.obj
 0002:000027a0       ___safe_se_handler_table   0040e7a0     <linker-defined>
 0002:000027a4       ___rtc_iaa                 0040e7a4     MSVCRT:_initsect_.obj
 0002:000027a8       ___rtc_izz                 0040e7a8     MSVCRT:_initsect_.obj
 0002:000027ac       ___rtc_taa                 0040e7ac     MSVCRT:_initsect_.obj
 0002:000027b0       ___rtc_tzz                 0040e7b0     MSVCRT:_initsect_.obj
 0002:00002834       __IMPORT_DESCRIPTOR_ole32  0040e834     ole32:ole32.dll
 0002:00002848       __IMPORT_DESCRIPTOR_WS2_32 0040e848     ws2_32:WS2_32.dll
 0002:0000285c       __IMPORT_DESCRIPTOR_MSVCR90 0040e85c     MSVCRT:MSVCR90.dll
 0002:00002870       __IMPORT_DESCRIPTOR_KERNEL32 0040e870     kernel32:KERNEL32.dll
 0002:00002884       __NULL_IMPORT_DESCRIPTOR   0040e884     ole32:ole32.dll
 0003:0000022c       _PJ_VERSION                0041022c     pjlib-i386-win32-vc8-release:config.obj
 0003:00000244       _pj_pool_factory_default_policy 00410244     pjlib-i386-win32-vc8-release:pool_policy_malloc.obj
 0003:00000254       ___security_cookie         00410254     MSVCRT:gs_cookie.obj
 0003:00000258       ___security_cookie_complement 00410258     MSVCRT:gs_cookie.obj
 0003:00000260       ___native_dllmain_reason   00410260     MSVCRT:natstart.obj
 0003:00000264       ___native_vcclrit_reason   00410264     MSVCRT:natstart.obj
 0003:00000268       ___globallocalestatus      00410268     MSVCRT:xthdloc.obj
 0003:0000026c       ___defaultmatherr          0041026c     MSVCRT:merr.obj
 0003:00000944       __dowildcard               00410944     MSVCRT:wildcard.obj
 0003:00000948       __newmode                  00410948     MSVCRT:_newmode.obj
 0003:0000094c       __commode                  0041094c     MSVCRT:xncommod.obj
 0003:00000950       __fmode                    00410950     MSVCRT:xtxtmode.obj
 0003:00000954       _PJ_NO_MEMORY_EXCEPTION    00410954     <common>
 0003:00000958       ___sse2_available          00410958     <common>
 0003:0000095c       __adjust_fdiv              0041095c     <common>
 0003:00000960       ___native_startup_state    00410960     <common>
 0003:00000964       ___native_startup_lock     00410964     <common>
 0003:00000968       ___onexitend               00410968     <common>
 0003:0000096c       ___onexitbegin             0041096c     <common>
 0003:00000970       ___dyn_tls_init_callback   00410970     <common>

 entry point at        0001:0000a193

 Static symbols

 0001:00000000       _pj_bzero                  00401000 f   httpdemo.obj
 0001:00000010       _on_response               00401010 f   httpdemo.obj
 0001:000000b0       _on_send_data              004010b0 f   httpdemo.obj
 0001:000000c0       _on_data_read              004010c0 f   httpdemo.obj
 0001:000000f0       _on_complete               004010f0 f   httpdemo.obj
 0001:000003e0       _pj_cstr                   004013e0 f   pjlib-util-i386-win32-vc8-release:http_client.obj
 0001:000003e0       _pj_strset2                004013e0 f   pjlib-util-i386-win32-vc8-release:http_client.obj
 0001:00000410       _on_syntax_error           00401410 f   pjlib-util-i386-win32-vc8-release:http_client.obj
 0001:00000420       _parse_auth_chal           00401420 f   pjlib-util-i386-win32-vc8-release:http_client.obj
 0001:00000730       _http_headers_parse        00401730 f   pjlib-util-i386-win32-vc8-release:http_client.obj
 0001:000008b0       _get_url_at_pos            004018b0 f   pjlib-util-i386-win32-vc8-release:http_client.obj
 0001:00000b80       _auth_respond_basic        00401b80 f   pjlib-util-i386-win32-vc8-release:http_client.obj
 0001:00000c80       _digest2str                00401c80 f   pjlib-util-i386-win32-vc8-release:http_client.obj
 0001:00000d30       _auth_create_digest_response 00401d30 f   pjlib-util-i386-win32-vc8-release:http_client.obj
 0001:00000fc0       _auth_has_qop              00401fc0 f   pjlib-util-i386-win32-vc8-release:http_client.obj
 0001:00001050       _auth_respond_digest       00402050 f   pjlib-util-i386-win32-vc8-release:http_client.obj
 0001:00001350       _str_snprintf              00402350 f   pjlib-util-i386-win32-vc8-release:http_client.obj
 0001:00001390       _http_req_end_request      00402390 f   pjlib-util-i386-win32-vc8-release:http_client.obj
 0001:00001500       _on_timeout                00402500 f   pjlib-util-i386-win32-vc8-release:http_client.obj
 0001:00001540       _http_response_parse       00402540 f   pjlib-util-i386-win32-vc8-release:http_client.obj
 0001:00001a40       _http_req_start_reading    00402a40 f   pjlib-util-i386-win32-vc8-release:http_client.obj
 0001:00001ab0       _http_on_data_sent         00402ab0 f   pjlib-util-i386-win32-vc8-release:http_client.obj
 0001:00001ba0       _http_on_data_read         00402ba0 f   pjlib-util-i386-win32-vc8-release:http_client.obj
 0001:00001f70       _http_req_start_sending    00402f70 f   pjlib-util-i386-win32-vc8-release:http_client.obj
 0001:00002220       _http_on_connect           00403220 f   pjlib-util-i386-win32-vc8-release:http_client.obj
 0001:00002280       _start_http_req            00403280 f   pjlib-util-i386-win32-vc8-release:http_client.obj
 0001:00002570       _restart_req_with_auth     00403570 f   pjlib-util-i386-win32-vc8-release:http_client.obj
 0001:00002db0       _MD5Transform              00403db0 f   pjlib-util-i386-win32-vc8-release:md5.obj
 0001:00003590       _pj_memcmp                 00404590 f   pjlib-i386-win32-vc8-release:string.obj
 0001:00003590       _pj_memcmp                 00404590 f   pjlib-i386-win32-vc8-release:string.obj
 0001:00003af0       _logging_shutdown          00404af0 f   pjlib-i386-win32-vc8-release:log.obj
 0001:00004110       _pjlib_error               00405110 f   pjlib-i386-win32-vc8-release:errno.obj
 0001:00004350       _invoke_log                00405350 f   pjlib-i386-win32-vc8-release:errno.obj
 0001:00004370       _pj_perror_imp             00405370 f   pjlib-i386-win32-vc8-release:errno.obj
 0001:000044e0       _pj_pool_create_block      004054e0 f   pjlib-i386-win32-vc8-release:pool.obj
 0001:00004710       _reset_pool                00405710 f   pjlib-i386-win32-vc8-release:pool.obj
 0001:00004870       _reheap_down               00405870 f   pjlib-i386-win32-vc8-release:timer.obj
 0001:00004990       _reheap_up                 00405990 f   pjlib-i386-win32-vc8-release:timer.obj
 0001:00004a30       _remove_node               00405a30 f   pjlib-i386-win32-vc8-release:timer.obj
 0001:00004b10       _grow_heap                 00405b10 f   pjlib-i386-win32-vc8-release:timer.obj
 0001:00004b90       _insert_node               00405b90 f   pjlib-i386-win32-vc8-release:timer.obj
 0001:00004be0       _schedule_entry            00405be0 f   pjlib-i386-win32-vc8-release:timer.obj
 0001:00004c40       _cancel                    00405c40 f   pjlib-i386-win32-vc8-release:timer.obj
 0001:00004dc0       _schedule_w_grp_lock       00405dc0 f   pjlib-i386-win32-vc8-release:timer.obj
 0001:000053f0       _increment_counter         004063f0 f   pjlib-i386-win32-vc8-release:ioqueue_select.obj
 0001:00005420       _decrement_counter         00406420 f   pjlib-i386-win32-vc8-release:ioqueue_select.obj
 0001:00005580       _scan_closing_keys         00406580 f   pjlib-i386-win32-vc8-release:ioqueue_select.obj
 0001:00005600       _ioqueue_init_key          00406600 f   pjlib-i386-win32-vc8-release:ioqueue_select.obj
 0001:00006ad0       _init_mutex                00407ad0 f   pjlib-i386-win32-vc8-release:os_core_win32.obj
 0001:00006dc0       _pj_sem_wait_for           00407dc0 f   pjlib-i386-win32-vc8-release:os_core_win32.obj
 0001:000074e0       _cpool_create_pool         004084e0 f   pjlib-i386-win32-vc8-release:pool_caching.obj
 0001:00007610       _cpool_release_pool        00408610 f   pjlib-i386-win32-vc8-release:pool_caching.obj
 0001:000076e0       _cpool_dump_status         004086e0 f   pjlib-i386-win32-vc8-release:pool_caching.obj
 0001:00007830       _cpool_on_block_alloc      00408830 f   pjlib-i386-win32-vc8-release:pool_caching.obj
 0001:00007850       _cpool_on_block_free       00408850 f   pjlib-i386-win32-vc8-release:pool_caching.obj
 0001:00007920       _exception_cleanup         00408920 f   pjlib-i386-win32-vc8-release:except.obj
 0001:000083e0       _ioqueue_on_read_complete  004093e0 f   pjlib-i386-win32-vc8-release:activesock.obj
 0001:000085f0       _send_remaining            004095f0 f   pjlib-i386-win32-vc8-release:activesock.obj
 0001:00008720       _ioqueue_on_write_complete 00409720 f   pjlib-i386-win32-vc8-release:activesock.obj
 0001:00008790       _ioqueue_on_accept_complete 00409790 f   pjlib-i386-win32-vc8-release:activesock.obj
 0001:00008910       _ioqueue_on_connect_complete 00409910 f   pjlib-i386-win32-vc8-release:activesock.obj
 0001:00008f40       _get_base_time             00409f40 f   pjlib-i386-win32-vc8-release:os_time_win32.obj
 0001:00009220       _create_mutex_lock         0040a220 f   pjlib-i386-win32-vc8-release:lock.obj
 0001:000092e0       _null_op                   0040a2e0 f   pjlib-i386-win32-vc8-release:lock.obj
 0001:00009390       _grp_lock_destroy          0040a390 f   pjlib-i386-win32-vc8-release:lock.obj
 0001:00009460       _grp_lock_acquire          0040a460 f   pjlib-i386-win32-vc8-release:lock.obj
 0001:000094d0       _grp_lock_tryacquire       0040a4d0 f   pjlib-i386-win32-vc8-release:lock.obj
 0001:000095c0       _grp_lock_release          0040a5c0 f   pjlib-i386-win32-vc8-release:lock.obj
 0001:000099b0       _guid_to_str               0040a9b0 f   pjlib-i386-win32-vc8-release:guid_win32.obj
 0001:00009af0       _pool_buf_cleanup          0040aaf0 f   pjlib-i386-win32-vc8-release:pool_buf.obj
 0001:00009b30       _stack_alloc               0040ab30 f   pjlib-i386-win32-vc8-release:pool_buf.obj
 0001:00009c10       _default_block_alloc       0040ac10 f   pjlib-i386-win32-vc8-release:pool_policy_malloc.obj
 0001:00009c70       _default_block_free        0040ac70 f   pjlib-i386-win32-vc8-release:pool_policy_malloc.obj
 0001:00009cb0       _default_pool_callback     0040acb0 f   pjlib-i386-win32-vc8-release:pool_policy_malloc.obj
 0001:00009ef1       _pre_cpp_init              0040aef1 f   MSVCRT:crtexe.obj
 0001:00009f3c       ___tmainCRTStartup         0040af3c f   MSVCRT:crtexe.obj
 0001:0000a0b2       _pre_c_init                0040b0b2 f   MSVCRT:crtexe.obj
 0001:0000a85e       _has_osfxsr_set            0040b85e f   MSVCRT:cpu_disp.obj
