 sipecho

 Timestamp is 57d7f16a (Tue Sep 13 20:30:34 2016)

 Preferred load address is 00400000

 Start         Length     Name                   Class
 0001:00000000 000313feH .text                   CODE
 0002:00000000 00000200H .idata$5                DATA
 0002:00000200 00000004H .CRT$XCA                DATA
 0002:00000204 00000004H .CRT$XCAA               DATA
 0002:00000208 00000004H .CRT$XCZ                DATA
 0002:0000020c 00000004H .CRT$XIA                DATA
 0002:00000210 00000004H .CRT$XIAA               DATA
 0002:00000214 00000004H .CRT$XIC                DATA
 0002:00000218 00000004H .CRT$XIY                DATA
 0002:0000021c 00000004H .CRT$XIZ                DATA
 0002:00000220 00006c78H .rdata                  DATA
 0002:00006ea0 00000004H .rdata$sxdata           DATA
 0002:00006ea4 00000004H .rtc$IAA                DATA
 0002:00006ea8 00000004H .rtc$IZZ                DATA
 0002:00006eac 00000004H .rtc$TAA                DATA
 0002:00006eb0 00000004H .rtc$TZZ                DATA
 0002:00006eb8 0000007cH .xdata$x                DATA
 0002:00006f34 00000050H .idata$2                DATA
 0002:00006f84 00000014H .idata$3                DATA
 0002:00006f98 00000200H .idata$4                DATA
 0002:00007198 00000678H .idata$6                DATA
 0002:00007810 00000000H .edata                  DATA
 0003:00000000 000011b0H .data                   DATA
 0003:000011b0 000042e0H .bss                    DATA

  Address         Publics by Value              Rva+Base       Lib:Object

 0000:00000000       __except_list              00000000     <absolute>
 0000:00000001       ___safe_se_handler_count   00000001     <absolute>
 0000:00009876       __fltused                  00009876     <absolute>
 0000:00009876       __ldused                   00009876     <absolute>
 0000:00000000       ___ImageBase               00400000     <linker-defined>
 0001:000000a0       _get_snd_options           004010a0 f   sipecho.obj
 0001:000003e0       _dump_pool_usage           004013e0 f   sipecho.obj
 0001:00001060       _main                      00402060 f   sipecho.obj
 0001:00001610       _pjsip_inv_usage_init      00402610 f   pjsip-ua-i386-win32-vc8-release:sip_inv.obj
 0001:00001670       _pjsip_inv_state_name      00402670 f   pjsip-ua-i386-win32-vc8-release:sip_inv.obj
 0001:00001690       _pjsip_inv_create_uac      00402690 f   pjsip-ua-i386-win32-vc8-release:sip_inv.obj
 0001:000017e0       _pjsip_rdata_get_sdp_info  004027e0 f   pjsip-ua-i386-win32-vc8-release:sip_inv.obj
 0001:00001950       _pjsip_inv_create_uas      00402950 f   pjsip-ua-i386-win32-vc8-release:sip_inv.obj
 0001:00001b50       _pjsip_inv_uac_restart     00402b50 f   pjsip-ua-i386-win32-vc8-release:sip_inv.obj
 0001:00001bf0       _pjsip_create_sdp_body     00402bf0 f   pjsip-ua-i386-win32-vc8-release:sip_inv.obj
 0001:00001de0       _pjsip_inv_invite          00402de0 f   pjsip-ua-i386-win32-vc8-release:sip_inv.obj
 0001:00002700       _pjsip_inv_initial_answer  00403700 f   pjsip-ua-i386-win32-vc8-release:sip_inv.obj
 0001:00002870       _pjsip_inv_answer          00403870 f   pjsip-ua-i386-win32-vc8-release:sip_inv.obj
 0001:00002950       _pjsip_inv_set_sdp_answer  00403950 f   pjsip-ua-i386-win32-vc8-release:sip_inv.obj
 0001:000029a0       _pjsip_inv_end_session     004039a0 f   pjsip-ua-i386-win32-vc8-release:sip_inv.obj
 0001:00002b30       _pjsip_inv_cancel_reinvite 00403b30 f   pjsip-ua-i386-win32-vc8-release:sip_inv.obj
 0001:00002bf0       _pjsip_inv_update          00403bf0 f   pjsip-ua-i386-win32-vc8-release:sip_inv.obj
 0001:00002e30       _pjsip_inv_send_msg        00403e30 f   pjsip-ua-i386-win32-vc8-release:sip_inv.obj
 0001:000038e0       _pjsip_inv_process_redirect 004048e0 f   pjsip-ua-i386-win32-vc8-release:sip_inv.obj
 0001:00003c20       _pjsip_inv_create_ack      00404c20 f   pjsip-ua-i386-win32-vc8-release:sip_inv.obj
 0001:00005d30       _pjsip_100rel_init_module  00406d30 f   pjsip-ua-i386-win32-vc8-release:sip_100rel.obj
 0001:00005d50       _pjsip_100rel_attach       00406d50 f   pjsip-ua-i386-win32-vc8-release:sip_100rel.obj
 0001:00005db0       _pjsip_100rel_is_reliable  00406db0 f   pjsip-ua-i386-win32-vc8-release:sip_100rel.obj
 0001:00005df0       _pjsip_100rel_create_prack 00406df0 f   pjsip-ua-i386-win32-vc8-release:sip_100rel.obj
 0001:00006100       _pjsip_100rel_send_prack   00407100 f   pjsip-ua-i386-win32-vc8-release:sip_100rel.obj
 0001:00006180       _pjsip_100rel_end_session  00407180 f   pjsip-ua-i386-win32-vc8-release:sip_100rel.obj
 0001:00006530       _pjsip_100rel_tx_response  00407530 f   pjsip-ua-i386-win32-vc8-release:sip_100rel.obj
 0001:00006970       _pjsip_100rel_on_rx_prack  00407970 f   pjsip-ua-i386-win32-vc8-release:sip_100rel.obj
 0001:00007080       _pjsip_timer_init_session  00408080 f   pjsip-ua-i386-win32-vc8-release:sip_timer.obj
 0001:00007100       _pjsip_sess_expires_hdr_create 00408100 f   pjsip-ua-i386-win32-vc8-release:sip_timer.obj
 0001:00007160       _pjsip_timer_handle_refresh_error 00408160 f   pjsip-ua-i386-win32-vc8-release:sip_timer.obj
 0001:00007250       _pjsip_timer_end_session   00408250 f   pjsip-ua-i386-win32-vc8-release:sip_timer.obj
 0001:00007510       _pjsip_timer_update_req    00408510 f   pjsip-ua-i386-win32-vc8-release:sip_timer.obj
 0001:000075a0       _pjsip_timer_process_resp  004085a0 f   pjsip-ua-i386-win32-vc8-release:sip_timer.obj
 0001:00007920       _pjsip_timer_process_req   00408920 f   pjsip-ua-i386-win32-vc8-release:sip_timer.obj
 0001:00007b30       _pjsip_timer_update_resp   00408b30 f   pjsip-ua-i386-win32-vc8-release:sip_timer.obj
 0001:00007cc0       _pjsip_transport_get_type_from_name 00408cc0 f   pjsip-core-i386-win32-vc8-release:sip_transport.obj
 0001:00007d20       _pjsip_transport_get_type_from_flag 00408d20 f   pjsip-core-i386-win32-vc8-release:sip_transport.obj
 0001:00007d50       _pjsip_transport_get_flag_from_type 00408d50 f   pjsip-core-i386-win32-vc8-release:sip_transport.obj
 0001:00007d80       _pjsip_transport_get_default_port_for_type 00408d80 f   pjsip-core-i386-win32-vc8-release:sip_transport.obj
 0001:00007dc0       _pjsip_transport_get_type_name 00408dc0 f   pjsip-core-i386-win32-vc8-release:sip_transport.obj
 0001:00007df0       _pjsip_transport_get_type_desc 00408df0 f   pjsip-core-i386-win32-vc8-release:sip_transport.obj
 0001:00007e20       _pjsip_tx_data_create      00408e20 f   pjsip-core-i386-win32-vc8-release:sip_transport.obj
 0001:00007f20       _pjsip_tx_data_add_ref     00408f20 f   pjsip-core-i386-win32-vc8-release:sip_transport.obj
 0001:00007f40       _pjsip_tx_data_invalidate_msg 00408f40 f   pjsip-core-i386-win32-vc8-release:sip_transport.obj
 0001:00008040       _pjsip_tx_data_get_info    00409040 f   pjsip-core-i386-win32-vc8-release:sip_transport.obj
 0001:000080a0       _pjsip_rx_data_get_info    004090a0 f   pjsip-core-i386-win32-vc8-release:sip_transport.obj
 0001:00008130       _pjsip_transport_add_ref   00409130 f   pjsip-core-i386-win32-vc8-release:sip_transport.obj
 0001:00008210       _pjsip_transport_dec_ref   00409210 f   pjsip-core-i386-win32-vc8-release:sip_transport.obj
 0001:000083f0       _pjsip_tpmgr_register_tpfactory 004093f0 f   pjsip-core-i386-win32-vc8-release:sip_transport.obj
 0001:00008470       _pjsip_tpmgr_unregister_tpfactory 00409470 f   pjsip-core-i386-win32-vc8-release:sip_transport.obj
 0001:000084f0       _pjsip_tpmgr_receive_packet 004094f0 f   pjsip-core-i386-win32-vc8-release:sip_transport.obj
 0001:00008910       _pjsip_tpmgr_acquire_transport2 00409910 f   pjsip-core-i386-win32-vc8-release:sip_transport.obj
 0001:00008c50       _pjsip_tpmgr_set_state_cb  00409c50 f   pjsip-core-i386-win32-vc8-release:sip_transport.obj
 0001:00008c70       _pjsip_tpmgr_get_state_cb  00409c70 f   pjsip-core-i386-win32-vc8-release:sip_transport.obj
 0001:00008d00       _pjsip_transport_add_state_listener 00409d00 f   pjsip-core-i386-win32-vc8-release:sip_transport.obj
 0001:00008dc0       _pjsip_transport_remove_state_listener 00409dc0 f   pjsip-core-i386-win32-vc8-release:sip_transport.obj
 0001:00008e60       _pjsip_tpselector_add_ref  00409e60 f   pjsip-core-i386-win32-vc8-release:sip_transport.obj
 0001:00008e80       _pjsip_tpselector_dec_ref  00409e80 f   pjsip-core-i386-win32-vc8-release:sip_transport.obj
 0001:00008f60       _pjsip_tx_data_dec_ref     00409f60 f   pjsip-core-i386-win32-vc8-release:sip_transport.obj
 0001:00008f90       _pjsip_tx_data_encode      00409f90 f   pjsip-core-i386-win32-vc8-release:sip_transport.obj
 0001:00009050       _pjsip_tx_data_set_transport 0040a050 f   pjsip-core-i386-win32-vc8-release:sip_transport.obj
 0001:00009140       _pjsip_transport_send      0040a140 f   pjsip-core-i386-win32-vc8-release:sip_transport.obj
 0001:000092a0       _pjsip_transport_shutdown  0040a2a0 f   pjsip-core-i386-win32-vc8-release:sip_transport.obj
 0001:00009380       _pjsip_transport_destroy   0040a380 f   pjsip-core-i386-win32-vc8-release:sip_transport.obj
 0001:000093f0       _pjsip_tpmgr_create        0040a3f0 f   pjsip-core-i386-win32-vc8-release:sip_transport.obj
 0001:000094f0       _pjsip_tpmgr_destroy       0040a4f0 f   pjsip-core-i386-win32-vc8-release:sip_transport.obj
 0001:00009650       _pjsip_transport_register  0040a650 f   pjsip-core-i386-win32-vc8-release:sip_transport.obj
 0001:00009750       _pjsip_endpt_register_module 0040a750 f   pjsip-core-i386-win32-vc8-release:sip_endpoint.obj
 0001:000098d0       _pjsip_endpt_get_capability 0040a8d0 f   pjsip-core-i386-win32-vc8-release:sip_endpoint.obj
 0001:00009900       _pjsip_endpt_add_capability 0040a900 f   pjsip-core-i386-win32-vc8-release:sip_endpoint.obj
 0001:000099f0       _pjsip_endpt_get_request_headers 0040a9f0 f   pjsip-core-i386-win32-vc8-release:sip_endpoint.obj
 0001:00009a00       _pjsip_endpt_destroy       0040aa00 f   pjsip-core-i386-win32-vc8-release:sip_endpoint.obj
 0001:00009b40       _pjsip_endpt_name          0040ab40 f   pjsip-core-i386-win32-vc8-release:sip_endpoint.obj
 0001:00009b50       _pjsip_endpt_create_pool   0040ab50 f   pjsip-core-i386-win32-vc8-release:sip_endpoint.obj
 0001:00009ba0       _pjsip_endpt_release_pool  0040aba0 f   pjsip-core-i386-win32-vc8-release:sip_endpoint.obj
 0001:00009bc0       _pjsip_endpt_handle_events2 0040abc0 f   pjsip-core-i386-win32-vc8-release:sip_endpoint.obj
 0001:00009cc0       _pjsip_endpt_handle_events 0040acc0 f   pjsip-core-i386-win32-vc8-release:sip_endpoint.obj
 0001:00009ce0       _pjsip_endpt_schedule_timer 0040ace0 f   pjsip-core-i386-win32-vc8-release:sip_endpoint.obj
 0001:00009d00       _pjsip_endpt_cancel_timer  0040ad00 f   pjsip-core-i386-win32-vc8-release:sip_endpoint.obj
 0001:00009d20       _pjsip_endpt_get_timer_heap 0040ad20 f   pjsip-core-i386-win32-vc8-release:sip_endpoint.obj
 0001:00009d30       _pjsip_endpt_process_rx_data 0040ad30 f   pjsip-core-i386-win32-vc8-release:sip_endpoint.obj
 0001:0000a170       _pjsip_endpt_create_tdata  0040b170 f   pjsip-core-i386-win32-vc8-release:sip_endpoint.obj
 0001:0000a180       _pjsip_endpt_resolve       0040b180 f   pjsip-core-i386-win32-vc8-release:sip_endpoint.obj
 0001:0000a190       _pjsip_endpt_get_tpmgr     0040b190 f   pjsip-core-i386-win32-vc8-release:sip_endpoint.obj
 0001:0000a1a0       _pjsip_endpt_get_ioqueue   0040b1a0 f   pjsip-core-i386-win32-vc8-release:sip_endpoint.obj
 0001:0000a1b0       _pjsip_endpt_acquire_transport2 0040b1b0 f   pjsip-core-i386-win32-vc8-release:sip_endpoint.obj
 0001:0000a1c0       _pjsip_endpt_log_error     0040b1c0 f   pjsip-core-i386-win32-vc8-release:sip_endpoint.obj
 0001:0000a2d0       _pjsip_endpt_atexit        0040b2d0 f   pjsip-core-i386-win32-vc8-release:sip_endpoint.obj
 0001:0000a330       _pjsip_endpt_unregister_module 0040b330 f   pjsip-core-i386-win32-vc8-release:sip_endpoint.obj
 0001:0000a400       _pjsip_endpt_create        0040b400 f   pjsip-core-i386-win32-vc8-release:sip_endpoint.obj
 0001:0000a7b0       _pjsip_get_invite_method   0040b7b0 f   pjsip-core-i386-win32-vc8-release:sip_msg.obj
 0001:0000a7c0       _pjsip_get_cancel_method   0040b7c0 f   pjsip-core-i386-win32-vc8-release:sip_msg.obj
 0001:0000a7d0       _pjsip_get_ack_method      0040b7d0 f   pjsip-core-i386-win32-vc8-release:sip_msg.obj
 0001:0000a7e0       _pjsip_get_bye_method      0040b7e0 f   pjsip-core-i386-win32-vc8-release:sip_msg.obj
 0001:0000ac40       _pjsip_method_init_np      0040bc40 f   pjsip-core-i386-win32-vc8-release:sip_msg.obj
 0001:0000acb0       _pjsip_method_copy         0040bcb0 f   pjsip-core-i386-win32-vc8-release:sip_msg.obj
 0001:0000acf0       _pjsip_method_cmp          0040bcf0 f   pjsip-core-i386-win32-vc8-release:sip_msg.obj
 0001:0000ad30       _pjsip_msg_create          0040bd30 f   pjsip-core-i386-win32-vc8-release:sip_msg.obj
 0001:0000ad60       _pjsip_msg_find_hdr        0040bd60 f   pjsip-core-i386-win32-vc8-release:sip_msg.obj
 0001:0000ad90       _pjsip_msg_find_hdr_by_name 0040bd90 f   pjsip-core-i386-win32-vc8-release:sip_msg.obj
 0001:0000ade0       _pjsip_msg_find_hdr_by_names 0040bde0 f   pjsip-core-i386-win32-vc8-release:sip_msg.obj
 0001:0000ae40       _pjsip_hdr_clone           0040be40 f   pjsip-core-i386-win32-vc8-release:sip_msg.obj
 0001:0000ae50       _pjsip_hdr_shallow_clone   0040be50 f   pjsip-core-i386-win32-vc8-release:sip_msg.obj
 0001:0000ae60       _pjsip_hdr_print_on        0040be60 f   pjsip-core-i386-win32-vc8-release:sip_msg.obj
 0001:0000ae70       _pjsip_get_status_text     0040be70 f   pjsip-core-i386-win32-vc8-release:sip_msg.obj
 0001:0000aeb0       _pjsip_media_type_init     0040beb0 f   pjsip-core-i386-win32-vc8-release:sip_msg.obj
 0001:0000af10       _pjsip_media_type_init2    0040bf10 f   pjsip-core-i386-win32-vc8-release:sip_msg.obj
 0001:0000af80       _pjsip_media_type_cmp      0040bf80 f   pjsip-core-i386-win32-vc8-release:sip_msg.obj
 0001:0000afe0       _pjsip_media_type_cp       0040bfe0 f   pjsip-core-i386-win32-vc8-release:sip_msg.obj
 0001:0000b030       _pjsip_generic_string_hdr_init2 0040c030 f   pjsip-core-i386-win32-vc8-release:sip_msg.obj
 0001:0000b0a0       _pjsip_generic_string_hdr_init 0040c0a0 f   pjsip-core-i386-win32-vc8-release:sip_msg.obj
 0001:0000b110       _pjsip_generic_string_hdr_create 0040c110 f   pjsip-core-i386-win32-vc8-release:sip_msg.obj
 0001:0000b2c0       _pjsip_generic_array_hdr_init 0040c2c0 f   pjsip-core-i386-win32-vc8-release:sip_msg.obj
 0001:0000b4b0       _pjsip_accept_hdr_create   0040c4b0 f   pjsip-core-i386-win32-vc8-release:sip_msg.obj
 0001:0000b4f0       _pjsip_allow_hdr_create    0040c4f0 f   pjsip-core-i386-win32-vc8-release:sip_msg.obj
 0001:0000b540       _pjsip_cid_hdr_init        0040c540 f   pjsip-core-i386-win32-vc8-release:sip_msg.obj
 0001:0000b5a0       _pjsip_cid_hdr_create      0040c5a0 f   pjsip-core-i386-win32-vc8-release:sip_msg.obj
 0001:0000b5c0       _pjsip_clen_hdr_init       0040c5c0 f   pjsip-core-i386-win32-vc8-release:sip_msg.obj
 0001:0000b630       _pjsip_clen_hdr_create     0040c630 f   pjsip-core-i386-win32-vc8-release:sip_msg.obj
 0001:0000b6e0       _pjsip_cseq_hdr_create     0040c6e0 f   pjsip-core-i386-win32-vc8-release:sip_msg.obj
 0001:0000b820       _pjsip_contact_hdr_init    0040c820 f   pjsip-core-i386-win32-vc8-release:sip_msg.obj
 0001:0000b890       _pjsip_contact_hdr_create  0040c890 f   pjsip-core-i386-win32-vc8-release:sip_msg.obj
 0001:0000bb00       _pjsip_ctype_hdr_init      0040cb00 f   pjsip-core-i386-win32-vc8-release:sip_msg.obj
 0001:0000bb70       _pjsip_ctype_hdr_create    0040cb70 f   pjsip-core-i386-win32-vc8-release:sip_msg.obj
 0001:0000bbf0       _pjsip_media_type_print    0040cbf0 f   pjsip-core-i386-win32-vc8-release:sip_msg.obj
 0001:0000bcd0       _pjsip_expires_hdr_create  0040ccd0 f   pjsip-core-i386-win32-vc8-release:sip_msg.obj
 0001:0000bd20       _pjsip_from_hdr_init       0040cd20 f   pjsip-core-i386-win32-vc8-release:sip_msg.obj
 0001:0000bd90       _pjsip_from_hdr_create     0040cd90 f   pjsip-core-i386-win32-vc8-release:sip_msg.obj
 0001:0000bdb0       _pjsip_to_hdr_init         0040cdb0 f   pjsip-core-i386-win32-vc8-release:sip_msg.obj
 0001:0000be20       _pjsip_to_hdr_create       0040ce20 f   pjsip-core-i386-win32-vc8-release:sip_msg.obj
 0001:0000be40       _pjsip_fromto_hdr_set_from 0040ce40 f   pjsip-core-i386-win32-vc8-release:sip_msg.obj
 0001:0000be70       _pjsip_fromto_hdr_set_to   0040ce70 f   pjsip-core-i386-win32-vc8-release:sip_msg.obj
 0001:0000c010       _pjsip_max_fwd_hdr_create  0040d010 f   pjsip-core-i386-win32-vc8-release:sip_msg.obj
 0001:0000c060       _pjsip_min_expires_hdr_create 0040d060 f   pjsip-core-i386-win32-vc8-release:sip_msg.obj
 0001:0000c0b0       _pjsip_rr_hdr_create       0040d0b0 f   pjsip-core-i386-win32-vc8-release:sip_msg.obj
 0001:0000c110       _pjsip_route_hdr_create    0040d110 f   pjsip-core-i386-win32-vc8-release:sip_msg.obj
 0001:0000c170       _pjsip_routing_hdr_set_route 0040d170 f   pjsip-core-i386-win32-vc8-release:sip_msg.obj
 0001:0000c360       _pjsip_require_hdr_create  0040d360 f   pjsip-core-i386-win32-vc8-release:sip_msg.obj
 0001:0000c3b0       _pjsip_retry_after_hdr_create 0040d3b0 f   pjsip-core-i386-win32-vc8-release:sip_msg.obj
 0001:0000c570       _pjsip_supported_hdr_init  0040d570 f   pjsip-core-i386-win32-vc8-release:sip_msg.obj
 0001:0000c5e0       _pjsip_supported_hdr_create 0040d5e0 f   pjsip-core-i386-win32-vc8-release:sip_msg.obj
 0001:0000c600       _pjsip_unsupported_hdr_create 0040d600 f   pjsip-core-i386-win32-vc8-release:sip_msg.obj
 0001:0000c650       _pjsip_via_hdr_init        0040d650 f   pjsip-core-i386-win32-vc8-release:sip_msg.obj
 0001:0000c6c0       _pjsip_via_hdr_create      0040d6c0 f   pjsip-core-i386-win32-vc8-release:sip_msg.obj
 0001:0000cb80       _pjsip_warning_hdr_create  0040db80 f   pjsip-core-i386-win32-vc8-release:sip_msg.obj
 0001:0000cc00       _pjsip_warning_hdr_create_from_status 0040dc00 f   pjsip-core-i386-win32-vc8-release:sip_msg.obj
 0001:0000cc60       _pjsip_print_text_body     0040dc60 f   pjsip-core-i386-win32-vc8-release:sip_msg.obj
 0001:0000cc90       _pjsip_clone_text_data     0040dc90 f   pjsip-core-i386-win32-vc8-release:sip_msg.obj
 0001:0000ccc0       _pjsip_msg_body_copy       0040dcc0 f   pjsip-core-i386-win32-vc8-release:sip_msg.obj
 0001:0000cd40       _pjsip_msg_body_clone      0040dd40 f   pjsip-core-i386-win32-vc8-release:sip_msg.obj
 0001:0000cd80       _pjsip_msg_print           0040dd80 f   pjsip-core-i386-win32-vc8-release:sip_msg.obj
 0001:0000d050       _pjsip_method_creates_dialog 0040e050 f   pjsip-core-i386-win32-vc8-release:sip_dialog.obj
 0001:0000d290       _pjsip_dlg_create_uac      0040e290 f   pjsip-core-i386-win32-vc8-release:sip_dialog.obj
 0001:0000d710       _pjsip_dlg_inc_lock        0040e710 f   pjsip-core-i386-win32-vc8-release:sip_dialog.obj
 0001:0000d740       _pjsip_dlg_try_inc_lock    0040e740 f   pjsip-core-i386-win32-vc8-release:sip_dialog.obj
 0001:0000d780       _pjsip_dlg_dec_lock        0040e780 f   pjsip-core-i386-win32-vc8-release:sip_dialog.obj
 0001:0000d7e0       _pjsip_dlg_dec_session     0040e7e0 f   pjsip-core-i386-win32-vc8-release:sip_dialog.obj
 0001:0000d860       _pjsip_dlg_add_usage       0040e860 f   pjsip-core-i386-win32-vc8-release:sip_dialog.obj
 0001:0000da70       _pjsip_dlg_create_request  0040ea70 f   pjsip-core-i386-win32-vc8-release:sip_dialog.obj
 0001:0000db50       _pjsip_dlg_send_request    0040eb50 f   pjsip-core-i386-win32-vc8-release:sip_dialog.obj
 0001:0000df00       _pjsip_dlg_create_response 0040ef00 f   pjsip-core-i386-win32-vc8-release:sip_dialog.obj
 0001:0000dfc0       _pjsip_dlg_modify_response 0040efc0 f   pjsip-core-i386-win32-vc8-release:sip_dialog.obj
 0001:0000e0d0       _pjsip_dlg_send_response   0040f0d0 f   pjsip-core-i386-win32-vc8-release:sip_dialog.obj
 0001:0000e1d0       _pjsip_dlg_on_rx_request   0040f1d0 f   pjsip-core-i386-win32-vc8-release:sip_dialog.obj
 0001:0000e620       _pjsip_dlg_on_tsx_state    0040f620 f   pjsip-core-i386-win32-vc8-release:sip_dialog.obj
 0001:0000e730       _pjsip_dlg_get_remote_cap_hdr 0040f730 f   pjsip-core-i386-win32-vc8-release:sip_dialog.obj
 0001:0000e7d0       _pjsip_dlg_set_remote_cap_hdr 0040f7d0 f   pjsip-core-i386-win32-vc8-release:sip_dialog.obj
 0001:0000e8f0       _pjsip_dlg_remove_remote_cap_hdr 0040f8f0 f   pjsip-core-i386-win32-vc8-release:sip_dialog.obj
 0001:0000e980       _pjsip_dlg_inc_session     0040f980 f   pjsip-core-i386-win32-vc8-release:sip_dialog.obj
 0001:0000ea00       _pjsip_dlg_remote_has_cap  0040fa00 f   pjsip-core-i386-win32-vc8-release:sip_dialog.obj
 0001:0000ead0       _pjsip_dlg_update_remote_cap 0040fad0 f   pjsip-core-i386-win32-vc8-release:sip_dialog.obj
 0001:0000ecf0       _create_uas_dialog         0040fcf0 f   pjsip-core-i386-win32-vc8-release:sip_dialog.obj
 0001:0000f230       _pjsip_dlg_create_uas_and_inc_lock 00410230 f   pjsip-core-i386-win32-vc8-release:sip_dialog.obj
 0001:0000f250       _pjsip_dlg_on_rx_response  00410250 f   pjsip-core-i386-win32-vc8-release:sip_dialog.obj
 0001:0000f740       _pjsip_ua_init_module      00410740 f   pjsip-core-i386-win32-vc8-release:sip_ua_layer.obj
 0001:0000f770       _pjsip_ua_instance         00410770 f   pjsip-core-i386-win32-vc8-release:sip_ua_layer.obj
 0001:0000f780       _pjsip_ua_get_endpt        00410780 f   pjsip-core-i386-win32-vc8-release:sip_ua_layer.obj
 0001:0000f7c0       _pjsip_ua_register_dlg     004107c0 f   pjsip-core-i386-win32-vc8-release:sip_ua_layer.obj
 0001:0000f8f0       _pjsip_ua_unregister_dlg   004108f0 f   pjsip-core-i386-win32-vc8-release:sip_ua_layer.obj
 0001:0000f9c0       _pjsip_rdata_get_dlg       004109c0 f   pjsip-core-i386-win32-vc8-release:sip_ua_layer.obj
 0001:0000f9e0       _pjsip_tsx_get_dlg         004109e0 f   pjsip-core-i386-win32-vc8-release:sip_ua_layer.obj
 0001:0000ff40       _pjsip_target_set_add_uri  00410f40 f   pjsip-core-i386-win32-vc8-release:sip_util.obj
 0001:00010010       _pjsip_target_set_add_from_msg 00411010 f   pjsip-core-i386-win32-vc8-release:sip_util.obj
 0001:00010090       _pjsip_target_set_get_next 00411090 f   pjsip-core-i386-win32-vc8-release:sip_util.obj
 0001:000100e0       _pjsip_target_set_set_current 004110e0 f   pjsip-core-i386-win32-vc8-release:sip_util.obj
 0001:00010120       _pjsip_target_assign_status 00411120 f   pjsip-core-i386-win32-vc8-release:sip_util.obj
 0001:00010360       _pjsip_endpt_create_request_from_hdr 00411360 f   pjsip-core-i386-win32-vc8-release:sip_util.obj
 0001:00010540       _pjsip_endpt_create_response 00411540 f   pjsip-core-i386-win32-vc8-release:sip_util.obj
 0001:000107c0       _pjsip_endpt_create_ack    004117c0 f   pjsip-core-i386-win32-vc8-release:sip_util.obj
 0001:00010980       _pjsip_endpt_create_cancel 00411980 f   pjsip-core-i386-win32-vc8-release:sip_util.obj
 0001:00010ba0       _pjsip_get_dest_info       00411ba0 f   pjsip-core-i386-win32-vc8-release:sip_util.obj
 0001:00010d50       _pjsip_get_request_dest    00411d50 f   pjsip-core-i386-win32-vc8-release:sip_util.obj
 0001:00010dc0       _pjsip_restore_strict_route_set 00411dc0 f   pjsip-core-i386-win32-vc8-release:sip_util.obj
 0001:000112f0       _pjsip_get_response_addr   004122f0 f   pjsip-core-i386-win32-vc8-release:sip_util.obj
 0001:000115c0       _pjsip_endpt_send_response 004125c0 f   pjsip-core-i386-win32-vc8-release:sip_util.obj
 0001:00011690       _pjsip_endpt_respond_stateless 00412690 f   pjsip-core-i386-win32-vc8-release:sip_util.obj
 0001:00011820       _pjsip_event_str           00412820 f   pjsip-core-i386-win32-vc8-release:sip_util.obj
 0001:00011830       _pjsip_process_route_set   00412830 f   pjsip-core-i386-win32-vc8-release:sip_util.obj
 0001:00011a30       _pjsip_endpt_send_request_stateless 00412a30 f   pjsip-core-i386-win32-vc8-release:sip_util.obj
 0001:00011b60       _pjsip_endpt_respond       00412b60 f   pjsip-core-i386-win32-vc8-release:sip_util_statefull.obj
 0001:00011cc0       _pjsip_tsx_state_str       00412cc0 f   pjsip-core-i386-win32-vc8-release:sip_transaction.obj
 0001:00011ea0       _pjsip_tsx_create_key      00412ea0 f   pjsip-core-i386-win32-vc8-release:sip_transaction.obj
 0001:00011f10       _pjsip_tsx_layer_init_module 00412f10 f   pjsip-core-i386-win32-vc8-release:sip_transaction.obj
 0001:00012160       _pjsip_tsx_layer_find_tsx  00413160 f   pjsip-core-i386-win32-vc8-release:sip_transaction.obj
 0001:000122a0       _pjsip_rdata_get_tsx       004132a0 f   pjsip-core-i386-win32-vc8-release:sip_transaction.obj
 0001:00012350       _pjsip_tsx_set_transport   00413350 f   pjsip-core-i386-win32-vc8-release:sip_transaction.obj
 0001:000123e0       _pjsip_tsx_set_timeout     004133e0 f   pjsip-core-i386-win32-vc8-release:sip_transaction.obj
 0001:000124b0       _pjsip_tsx_send_msg        004134b0 f   pjsip-core-i386-win32-vc8-release:sip_transaction.obj
 0001:00012570       _pjsip_tsx_recv_msg        00413570 f   pjsip-core-i386-win32-vc8-release:sip_transaction.obj
 0001:00012cb0       _pjsip_tsx_terminate       00413cb0 f   pjsip-core-i386-win32-vc8-release:sip_transaction.obj
 0001:00013400       _pjsip_tsx_retransmit_no_state 00414400 f   pjsip-core-i386-win32-vc8-release:sip_transaction.obj
 0001:00014d00       _pjsip_tsx_create_uac2     00415d00 f   pjsip-core-i386-win32-vc8-release:sip_transaction.obj
 0001:00014f60       _pjsip_tsx_create_uas2     00415f60 f   pjsip-core-i386-win32-vc8-release:sip_transaction.obj
 0001:000151a0       _pjsip_tsx_create_uac      004161a0 f   pjsip-core-i386-win32-vc8-release:sip_transaction.obj
 0001:000151c0       _pjsip_tsx_create_uas      004161c0 f   pjsip-core-i386-win32-vc8-release:sip_transaction.obj
 0001:00015d40       _pjsip_udp_transport_start2 00416d40 f   pjsip-core-i386-win32-vc8-release:sip_transport_udp.obj
 0001:00015e90       _pjsip_udp_transport_start 00416e90 f   pjsip-core-i386-win32-vc8-release:sip_transport_udp.obj
 0001:00015f60       _pjsip_udp_transport_start6 00416f60 f   pjsip-core-i386-win32-vc8-release:sip_transport_udp.obj
 0001:00017610       _pjsip_tcp_transport_start3 00418610 f   pjsip-core-i386-win32-vc8-release:sip_transport_tcp.obj
 0001:00017b60       _pjsip_tcp_transport_start2 00418b60 f   pjsip-core-i386-win32-vc8-release:sip_transport_tcp.obj
 0001:00017c50       _pjsip_tcp_transport_start 00418c50 f   pjsip-core-i386-win32-vc8-release:sip_transport_tcp.obj
 0001:00017f00       _pjsip_multipart_add_part  00418f00 f   pjsip-core-i386-win32-vc8-release:sip_multipart.obj
 0001:00017f50       _pjsip_multipart_find_part 00418f50 f   pjsip-core-i386-win32-vc8-release:sip_multipart.obj
 0001:00018250       _pjsip_multipart_create    00419250 f   pjsip-core-i386-win32-vc8-release:sip_multipart.obj
 0001:00018370       _pjsip_multipart_parse     00419370 f   pjsip-core-i386-win32-vc8-release:sip_multipart.obj
 0001:00018650       _pjsip_parser_const        00419650 f   pjsip-core-i386-win32-vc8-release:sip_parser.obj
 0001:00018660       _deinit_sip_parser         00419660 f   pjsip-core-i386-win32-vc8-release:sip_parser.obj
 0001:00018820       _pjsip_register_hdr_parser 00419820 f   pjsip-core-i386-win32-vc8-release:sip_parser.obj
 0001:00018a00       _pjsip_register_uri_parser 00419a00 f   pjsip-core-i386-win32-vc8-release:sip_parser.obj
 0001:00018a50       _pjsip_find_msg            00419a50 f   pjsip-core-i386-win32-vc8-release:sip_parser.obj
 0001:00018e00       _pjsip_parse_param_imp     00419e00 f   pjsip-core-i386-win32-vc8-release:sip_parser.obj
 0001:000193f0       _pjsip_parse_end_hdr_imp   0041a3f0 f   pjsip-core-i386-win32-vc8-release:sip_parser.obj
 0001:0001a210       _pjsip_parse_hdr           0041b210 f   pjsip-core-i386-win32-vc8-release:sip_parser.obj
 0001:0001a2e0       _pjsip_parse_headers       0041b2e0 f   pjsip-core-i386-win32-vc8-release:sip_parser.obj
 0001:0001b5f0       _init_sip_parser           0041c5f0 f   pjsip-core-i386-win32-vc8-release:sip_parser.obj
 0001:0001b610       _pjsip_parse_rdata         0041c610 f   pjsip-core-i386-win32-vc8-release:sip_parser.obj
 0001:0001b680       _pjsip_parse_uri           0041c680 f   pjsip-core-i386-win32-vc8-release:sip_parser.obj
 0001:0001b7d0       _pjsip_auth_create_digest  0041c7d0 f   pjsip-core-i386-win32-vc8-release:sip_auth_client.obj
 0001:0001bed0       _pjsip_auth_clt_init       0041ced0 f   pjsip-core-i386-win32-vc8-release:sip_auth_client.obj
 0001:0001bf20       _pjsip_auth_clt_deinit     0041cf20 f   pjsip-core-i386-win32-vc8-release:sip_auth_client.obj
 0001:0001c130       _pjsip_auth_clt_init_req   0041d130 f   pjsip-core-i386-win32-vc8-release:sip_auth_client.obj
 0001:0001c590       _pjsip_auth_clt_reinit_req 0041d590 f   pjsip-core-i386-win32-vc8-release:sip_auth_client.obj
 0001:0001c790       _pjsip_param_find          0041d790 f   pjsip-core-i386-win32-vc8-release:sip_uri.obj
 0001:0001c7d0       _pjsip_param_cmp           0041d7d0 f   pjsip-core-i386-win32-vc8-release:sip_uri.obj
 0001:0001c880       _pjsip_param_clone         0041d880 f   pjsip-core-i386-win32-vc8-release:sip_uri.obj
 0001:0001c8f0       _pjsip_param_shallow_clone 0041d8f0 f   pjsip-core-i386-win32-vc8-release:sip_uri.obj
 0001:0001c950       _pjsip_param_print_on      0041d950 f   pjsip-core-i386-win32-vc8-release:sip_uri.obj
 0001:0001ca70       _pjsip_sip_uri_create      0041da70 f   pjsip-core-i386-win32-vc8-release:sip_uri.obj
 0001:0001d160       _pjsip_sip_uri_assign      0041e160 f   pjsip-core-i386-win32-vc8-release:sip_uri.obj
 0001:0001d2a0       _pjsip_name_addr_init      0041e2a0 f   pjsip-core-i386-win32-vc8-release:sip_uri.obj
 0001:0001d2c0       _pjsip_name_addr_create    0041e2c0 f   pjsip-core-i386-win32-vc8-release:sip_uri.obj
 0001:0001d3d0       _pjsip_name_addr_assign    0041e3d0 f   pjsip-core-i386-win32-vc8-release:sip_uri.obj
 0001:0001d4c0       _pjsip_other_uri_create    0041e4c0 f   pjsip-core-i386-win32-vc8-release:sip_uri.obj
 0001:0001d600       _pjsip_resolver_create     0041e600 f   pjsip-core-i386-win32-vc8-release:sip_resolve.obj
 0001:0001d630       _pjsip_resolver_destroy    0041e630 f   pjsip-core-i386-win32-vc8-release:sip_resolve.obj
 0001:0001db50       _pjsip_resolve             0041eb50 f   pjsip-core-i386-win32-vc8-release:sip_resolve.obj
 0001:0001e240       _pjsip_tel_nb_cmp          0041f240 f   pjsip-core-i386-win32-vc8-release:sip_tel_uri.obj
 0001:0001e6e0       _pjsip_tel_uri_subsys_init 0041f6e0 f   pjsip-core-i386-win32-vc8-release:sip_tel_uri.obj
 0001:0001e8e0       _pjsip_strerror            0041f8e0 f   pjsip-core-i386-win32-vc8-release:sip_errno.obj
 0001:0001efc0       _pjsip_auth_init_parser    0041ffc0 f   pjsip-core-i386-win32-vc8-release:sip_auth_parser.obj
 0001:0001f020       _pjsip_authorization_hdr_create 00420020 f   pjsip-core-i386-win32-vc8-release:sip_auth_msg.obj
 0001:0001f080       _pjsip_proxy_authorization_hdr_create 00420080 f   pjsip-core-i386-win32-vc8-release:sip_auth_msg.obj
 0001:0001f7a0       _pjsip_www_authenticate_hdr_create 004207a0 f   pjsip-core-i386-win32-vc8-release:sip_auth_msg.obj
 0001:0001f800       _pjsip_proxy_authenticate_hdr_create 00420800 f   pjsip-core-i386-win32-vc8-release:sip_auth_msg.obj
 0001:0001fe00       _pjmedia_sdp_attr_create   00420e00 f   pjmedia-i386-win32-vc8-release:sdp.obj
 0001:0001fe60       _pjmedia_sdp_attr_find     00420e60 f   pjmedia-i386-win32-vc8-release:sdp.obj
 0001:0001fef0       _pjmedia_sdp_attr_remove_all 00420ef0 f   pjmedia-i386-win32-vc8-release:sdp.obj
 0001:0001ffa0       _pjmedia_sdp_attr_remove   00420fa0 f   pjmedia-i386-win32-vc8-release:sdp.obj
 0001:00020060       _pjmedia_sdp_conn_clone    00421060 f   pjmedia-i386-win32-vc8-release:sdp.obj
 0001:00020330       _pjmedia_sdp_media_clone   00421330 f   pjmedia-i386-win32-vc8-release:sdp.obj
 0001:00020520       _pjmedia_sdp_media_find_attr 00421520 f   pjmedia-i386-win32-vc8-release:sdp.obj
 0001:00020550       _pjmedia_sdp_media_find_attr2 00421550 f   pjmedia-i386-win32-vc8-release:sdp.obj
 0001:000205b0       _pjmedia_sdp_media_add_attr 004215b0 f   pjmedia-i386-win32-vc8-release:sdp.obj
 0001:000205f0       _pjmedia_sdp_session_add_attr 004215f0 f   pjmedia-i386-win32-vc8-release:sdp.obj
 0001:00020630       _pjmedia_sdp_media_remove_all_attr 00421630 f   pjmedia-i386-win32-vc8-release:sdp.obj
 0001:00020650       _pjmedia_sdp_media_remove_attr 00421650 f   pjmedia-i386-win32-vc8-release:sdp.obj
 0001:00020c30       _pjmedia_sdp_print         00421c30 f   pjmedia-i386-win32-vc8-release:sdp.obj
 0001:00020c50       _pjmedia_sdp_session_clone 00421c50 f   pjmedia-i386-win32-vc8-release:sdp.obj
 0001:00020ee0       _pjmedia_sdp_validate2     00421ee0 f   pjmedia-i386-win32-vc8-release:sdp.obj
 0001:000210d0       _pjmedia_sdp_transport_cmp 004220d0 f   pjmedia-i386-win32-vc8-release:sdp.obj
 0001:00021140       _pjmedia_sdp_media_deactivate 00422140 f   pjmedia-i386-win32-vc8-release:sdp.obj
 0001:00021160       _pjmedia_sdp_media_clone_deactivate 00422160 f   pjmedia-i386-win32-vc8-release:sdp.obj
 0001:000212d0       _pjmedia_sdp_attr_get_rtpmap 004222d0 f   pjmedia-i386-win32-vc8-release:sdp.obj
 0001:000216f0       _pjmedia_sdp_parse         004226f0 f   pjmedia-i386-win32-vc8-release:sdp.obj
 0001:00021b60       _pjmedia_sdp_validate      00422b60 f   pjmedia-i386-win32-vc8-release:sdp.obj
 0001:00021b70       _pjmedia_sdp_neg_state_str 00422b70 f   pjmedia-i386-win32-vc8-release:sdp_neg.obj
 0001:00021b90       _pjmedia_sdp_neg_create_w_local_offer 00422b90 f   pjmedia-i386-win32-vc8-release:sdp_neg.obj
 0001:00021c20       _pjmedia_sdp_neg_create_w_remote_offer 00422c20 f   pjmedia-i386-win32-vc8-release:sdp_neg.obj
 0001:00021cf0       _pjmedia_sdp_neg_get_state 00422cf0 f   pjmedia-i386-win32-vc8-release:sdp_neg.obj
 0001:00021d00       _pjmedia_sdp_neg_get_active_local 00422d00 f   pjmedia-i386-win32-vc8-release:sdp_neg.obj
 0001:00021d30       _pjmedia_sdp_neg_get_neg_local 00422d30 f   pjmedia-i386-win32-vc8-release:sdp_neg.obj
 0001:00021e10       _pjmedia_sdp_neg_modify_local_offer2 00422e10 f   pjmedia-i386-win32-vc8-release:sdp_neg.obj
 0001:00022070       _pjmedia_sdp_neg_send_local_offer 00423070 f   pjmedia-i386-win32-vc8-release:sdp_neg.obj
 0001:00022100       _pjmedia_sdp_neg_set_remote_answer 00423100 f   pjmedia-i386-win32-vc8-release:sdp_neg.obj
 0001:00022150       _pjmedia_sdp_neg_set_remote_offer 00423150 f   pjmedia-i386-win32-vc8-release:sdp_neg.obj
 0001:000221a0       _pjmedia_sdp_neg_set_local_answer 004231a0 f   pjmedia-i386-win32-vc8-release:sdp_neg.obj
 0001:00022220       _pjmedia_sdp_neg_has_local_answer 00423220 f   pjmedia-i386-win32-vc8-release:sdp_neg.obj
 0001:00022520       _pjmedia_sdp_neg_cancel_offer 00423520 f   pjmedia-i386-win32-vc8-release:sdp_neg.obj
 0001:000232b0       _pjmedia_sdp_neg_negotiate 004242b0 f   pjmedia-i386-win32-vc8-release:sdp_neg.obj
 0001:00023c00       _pj_getopt_long            00424c00 f   pjlib-util-i386-win32-vc8-release:getopt.obj
 0001:00023c30       _pjlib_util_strerror       00424c30 f   pjlib-util-i386-win32-vc8-release:errno.obj
 0001:00023d10       _pjlib_util_init           00424d10 f   pjlib-util-i386-win32-vc8-release:errno.obj
 0001:00023d30       _pj_cis_buf_init           00424d30 f   pjlib-util-i386-win32-vc8-release:scanner.obj
 0001:00023d60       _pj_cis_init               00424d60 f   pjlib-util-i386-win32-vc8-release:scanner.obj
 0001:00023db0       _pj_cis_dup                00424db0 f   pjlib-util-i386-win32-vc8-release:scanner.obj
 0001:00023ec0       _pj_cis_add_alpha          00424ec0 f   pjlib-util-i386-win32-vc8-release:scanner.obj
 0001:00023f10       _pj_cis_add_num            00424f10 f   pjlib-util-i386-win32-vc8-release:scanner.obj
 0001:00023f40       _pj_cis_add_str            00424f40 f   pjlib-util-i386-win32-vc8-release:scanner.obj
 0001:00023f70       _pj_cis_add_cis            00424f70 f   pjlib-util-i386-win32-vc8-release:scanner.obj
 0001:00024020       _pj_cis_del_str            00425020 f   pjlib-util-i386-win32-vc8-release:scanner.obj
 0001:00024050       _pj_cis_invert             00425050 f   pjlib-util-i386-win32-vc8-release:scanner.obj
 0001:00024120       _pj_scan_fini              00425120 f   pjlib-util-i386-win32-vc8-release:scanner.obj
 0001:00024140       _pj_scan_skip_whitespace   00425140 f   pjlib-util-i386-win32-vc8-release:scanner.obj
 0001:00024210       _pj_scan_skip_line         00425210 f   pjlib-util-i386-win32-vc8-release:scanner.obj
 0001:00024240       _pj_scan_peek              00425240 f   pjlib-util-i386-win32-vc8-release:scanner.obj
 0001:000242a0       _pj_scan_get               004252a0 f   pjlib-util-i386-win32-vc8-release:scanner.obj
 0001:00024310       _pj_scan_get_quotes        00425310 f   pjlib-util-i386-win32-vc8-release:scanner.obj
 0001:000243e0       _pj_scan_get_n             004253e0 f   pjlib-util-i386-win32-vc8-release:scanner.obj
 0001:00024430       _pj_scan_get_char          00425430 f   pjlib-util-i386-win32-vc8-release:scanner.obj
 0001:00024470       _pj_scan_get_newline       00425470 f   pjlib-util-i386-win32-vc8-release:scanner.obj
 0001:000244b0       _pj_scan_get_until_ch      004254b0 f   pjlib-util-i386-win32-vc8-release:scanner.obj
 0001:00024510       _pj_scan_get_until_chr     00425510 f   pjlib-util-i386-win32-vc8-release:scanner.obj
 0001:00024590       _pj_scan_advance_n         00425590 f   pjlib-util-i386-win32-vc8-release:scanner.obj
 0001:000245d0       _pj_scan_init              004255d0 f   pjlib-util-i386-win32-vc8-release:scanner.obj
 0001:00024620       _pj_scan_get_quote         00425620 f   pjlib-util-i386-win32-vc8-release:scanner.obj
 0001:000246a0       _pj_dns_resolver_destroy   004256a0 f   pjlib-util-i386-win32-vc8-release:resolver.obj
 0001:00024910       _pj_dns_resolver_cancel_query 00425910 f   pjlib-util-i386-win32-vc8-release:resolver.obj
 0001:00024970       _pj_dns_parse_addr_response 00425970 f   pjlib-util-i386-win32-vc8-release:resolver.obj
 0001:00025210       _pj_dns_resolver_start_query 00426210 f   pjlib-util-i386-win32-vc8-release:resolver.obj
 0001:00025730       _pj_str_unescape           00426730 f   pjlib-util-i386-win32-vc8-release:string.obj
 0001:00025820       _pj_strncpy2_escape        00426820 f   pjlib-util-i386-win32-vc8-release:string.obj
 0001:000258e0       _pj_md5_init               004268e0 f   pjlib-util-i386-win32-vc8-release:md5.obj
 0001:00025f90       _pj_md5_update             00426f90 f   pjlib-util-i386-win32-vc8-release:md5.obj
 0001:00026050       _pj_md5_final              00427050 f   pjlib-util-i386-win32-vc8-release:md5.obj
 0001:000260f0       _pj_dns_srv_cancel_query   004270f0 f   pjlib-util-i386-win32-vc8-release:srv_resolver.obj
 0001:00026f70       _pj_dns_srv_resolve        00427f70 f   pjlib-util-i386-win32-vc8-release:srv_resolver.obj
 0001:00027110       _pj_dns_get_type_name      00428110 f   pjlib-util-i386-win32-vc8-release:dns.obj
 0001:000271b0       _pj_dns_make_query         004281b0 f   pjlib-util-i386-win32-vc8-release:dns.obj
 0001:000272a0       _pj_list_insert_after      004282a0 f   pjlib-i386-win32-vc8-release:list.obj
 0001:000272c0       _pj_list_insert_before     004282c0 f   pjlib-i386-win32-vc8-release:list.obj
 0001:000272e0       _pj_list_insert_nodes_before 004282e0 f   pjlib-i386-win32-vc8-release:list.obj
 0001:00027300       _pj_list_erase             00428300 f   pjlib-i386-win32-vc8-release:list.obj
 0001:00027320       _pj_list_find_node         00428320 f   pjlib-i386-win32-vc8-release:list.obj
 0001:00027350       _pj_list_search            00428350 f   pjlib-i386-win32-vc8-release:list.obj
 0001:00027390       _pj_list_size              00428390 f   pjlib-i386-win32-vc8-release:list.obj
 0001:000273b0       _pj_pool_get_capacity      004283b0 f   pjlib-i386-win32-vc8-release:pool.obj
 0001:000273c0       _pj_pool_get_used_size     004283c0 f   pjlib-i386-win32-vc8-release:pool.obj
 0001:000273f0       _pj_pool_alloc_from_block  004283f0 f   pjlib-i386-win32-vc8-release:pool.obj
 0001:00027420       _pj_pool_getobjname        00428420 f   pjlib-i386-win32-vc8-release:pool.obj
 0001:00027430       _pj_pool_create            00428430 f   pjlib-i386-win32-vc8-release:pool.obj
 0001:00027440       _pj_pool_release           00428440 f   pjlib-i386-win32-vc8-release:pool.obj
 0001:00027460       _pj_NO_MEMORY_EXCEPTION    00428460 f   pjlib-i386-win32-vc8-release:pool.obj
 0001:000274e0       _pj_pool_allocate_find     004284e0 f   pjlib-i386-win32-vc8-release:pool.obj
 0001:00027590       _pj_pool_init_int          00428590 f   pjlib-i386-win32-vc8-release:pool.obj
 0001:00027600       _pj_pool_create_int        00428600 f   pjlib-i386-win32-vc8-release:pool.obj
 0001:00027710       _pj_pool_reset             00428710 f   pjlib-i386-win32-vc8-release:pool.obj
 0001:00027720       _pj_pool_destroy_int       00428720 f   pjlib-i386-win32-vc8-release:pool.obj
 0001:00027760       _pj_pool_alloc             00428760 f   pjlib-i386-win32-vc8-release:pool.obj
 0001:000277a0       _pj_pool_calloc            004287a0 f   pjlib-i386-win32-vc8-release:pool.obj
 0001:00027840       _pj_log_push_indent        00428840 f   pjlib-i386-win32-vc8-release:log.obj
 0001:00027870       _pj_log_pop_indent         00428870 f   pjlib-i386-win32-vc8-release:log.obj
 0001:000278a0       _pj_log_init               004288a0 f   pjlib-i386-win32-vc8-release:log.obj
 0001:00027910       _pj_log_get_decor          00428910 f   pjlib-i386-win32-vc8-release:log.obj
 0001:00027920       _pj_log_get_color          00428920 f   pjlib-i386-win32-vc8-release:log.obj
 0001:00027980       _pj_log_set_level          00428980 f   pjlib-i386-win32-vc8-release:log.obj
 0001:00027990       _pj_log_get_level          00428990 f   pjlib-i386-win32-vc8-release:log.obj
 0001:000279a0       _pj_log                    004289a0 f   pjlib-i386-win32-vc8-release:log.obj
 0001:00027e00       _pj_log_1                  00428e00 f   pjlib-i386-win32-vc8-release:log.obj
 0001:00027e20       _pj_log_2                  00428e20 f   pjlib-i386-win32-vc8-release:log.obj
 0001:00027e40       _pj_log_3                  00428e40 f   pjlib-i386-win32-vc8-release:log.obj
 0001:00027e60       _pj_log_4                  00428e60 f   pjlib-i386-win32-vc8-release:log.obj
 0001:00027e80       _pj_log_5                  00428e80 f   pjlib-i386-win32-vc8-release:log.obj
 0001:00027f10       _pj_register_strerror      00428f10 f   pjlib-i386-win32-vc8-release:errno.obj
 0001:00027ff0       _pj_strerror               00428ff0 f   pjlib-i386-win32-vc8-release:errno.obj
 0001:00028180       _pj_perror                 00429180 f   pjlib-i386-win32-vc8-release:errno.obj
 0001:000281b0       _pj_perror_1               004291b0 f   pjlib-i386-win32-vc8-release:errno.obj
 0001:000281d0       _pj_perror_2               004291d0 f   pjlib-i386-win32-vc8-release:errno.obj
 0001:000281f0       _pj_perror_3               004291f0 f   pjlib-i386-win32-vc8-release:errno.obj
 0001:00028210       _pj_perror_4               00429210 f   pjlib-i386-win32-vc8-release:errno.obj
 0001:00028230       _pj_caching_pool_destroy   00429230 f   pjlib-i386-win32-vc8-release:pool_caching.obj
 0001:00028680       _pj_caching_pool_init      00429680 f   pjlib-i386-win32-vc8-release:pool_caching.obj
 0001:00028740       _pj_atexit                 00429740 f   pjlib-i386-win32-vc8-release:os_core_win32.obj
 0001:00028770       _pj_atomic_create          00429770 f   pjlib-i386-win32-vc8-release:os_core_win32.obj
 0001:000287a0       _pj_atomic_destroy         004297a0 f   pjlib-i386-win32-vc8-release:os_core_win32.obj
 0001:000287c0       _pj_thread_local_alloc     004297c0 f   pjlib-i386-win32-vc8-release:os_core_win32.obj
 0001:00028810       _pj_thread_local_set       00429810 f   pjlib-i386-win32-vc8-release:os_core_win32.obj
 0001:00028850       _pj_thread_local_get       00429850 f   pjlib-i386-win32-vc8-release:os_core_win32.obj
 0001:00028860       _pj_thread_register        00429860 f   pjlib-i386-win32-vc8-release:os_core_win32.obj
 0001:00028930       _pj_thread_init            00429930 f   pjlib-i386-win32-vc8-release:os_core_win32.obj
 0001:00028a10       _pj_thread_this            00429a10 f   pjlib-i386-win32-vc8-release:os_core_win32.obj
 0001:00028a20       _pj_thread_check_stack     00429a20 f   pjlib-i386-win32-vc8-release:os_core_win32.obj
 0001:00028a60       _pj_atomic_set             00429a60 f   pjlib-i386-win32-vc8-release:os_core_win32.obj
 0001:00028ab0       _pj_atomic_get             00429ab0 f   pjlib-i386-win32-vc8-release:os_core_win32.obj
 0001:00028b00       _pj_atomic_inc_and_get     00429b00 f   pjlib-i386-win32-vc8-release:os_core_win32.obj
 0001:00028b00       _pj_atomic_inc             00429b00 f   pjlib-i386-win32-vc8-release:os_core_win32.obj
 0001:00028b50       _pj_atomic_dec_and_get     00429b50 f   pjlib-i386-win32-vc8-release:os_core_win32.obj
 0001:00028ba0       _pj_thread_local_free      00429ba0 f   pjlib-i386-win32-vc8-release:os_core_win32.obj
 0001:00028c90       _pj_mutex_create           00429c90 f   pjlib-i386-win32-vc8-release:os_core_win32.obj
 0001:00028ce0       _pj_mutex_create_recursive 00429ce0 f   pjlib-i386-win32-vc8-release:os_core_win32.obj
 0001:00028ce0       _pj_mutex_create_simple    00429ce0 f   pjlib-i386-win32-vc8-release:os_core_win32.obj
 0001:00028d30       _pj_mutex_lock             00429d30 f   pjlib-i386-win32-vc8-release:os_core_win32.obj
 0001:00028d90       _pj_mutex_unlock           00429d90 f   pjlib-i386-win32-vc8-release:os_core_win32.obj
 0001:00028df0       _pj_mutex_trylock          00429df0 f   pjlib-i386-win32-vc8-release:os_core_win32.obj
 0001:00028e60       _pj_mutex_destroy          00429e60 f   pjlib-i386-win32-vc8-release:os_core_win32.obj
 0001:00028ec0       _pj_enter_critical_section 00429ec0 f   pjlib-i386-win32-vc8-release:os_core_win32.obj
 0001:00028ed0       _pj_leave_critical_section 00429ed0 f   pjlib-i386-win32-vc8-release:os_core_win32.obj
 0001:00028ee0       _pj_sem_create             00429ee0 f   pjlib-i386-win32-vc8-release:os_core_win32.obj
 0001:00029090       _pj_sem_wait               0042a090 f   pjlib-i386-win32-vc8-release:os_core_win32.obj
 0001:000290f0       _pj_sem_trywait            0042a0f0 f   pjlib-i386-win32-vc8-release:os_core_win32.obj
 0001:00029150       _pj_sem_post               0042a150 f   pjlib-i386-win32-vc8-release:os_core_win32.obj
 0001:000291e0       _pj_sem_destroy            0042a1e0 f   pjlib-i386-win32-vc8-release:os_core_win32.obj
 0001:00029260       _pj_term_set_color         0042a260 f   pjlib-i386-win32-vc8-release:os_core_win32.obj
 0001:00029300       _pj_init                   0042a300 f   pjlib-i386-win32-vc8-release:os_core_win32.obj
 0001:00029460       _pj_thread_create          0042a460 f   pjlib-i386-win32-vc8-release:os_core_win32.obj
 0001:000295c0       _pj_thread_get_name        0042a5c0 f   pjlib-i386-win32-vc8-release:os_core_win32.obj
 0001:00029610       _pj_thread_join            0042a610 f   pjlib-i386-win32-vc8-release:os_core_win32.obj
 0001:000296c0       _pj_thread_sleep           0042a6c0 f   pjlib-i386-win32-vc8-release:os_core_win32.obj
 0001:00029710       _pj_rwmutex_create         0042a710 f   pjlib-i386-win32-vc8-release:os_core_win32.obj
 0001:00029790       _pj_rwmutex_lock_read      0042a790 f   pjlib-i386-win32-vc8-release:os_core_win32.obj
 0001:000297d0       _pj_rwmutex_lock_write     0042a7d0 f   pjlib-i386-win32-vc8-release:os_core_win32.obj
 0001:000297f0       _pj_rwmutex_unlock_read    0042a7f0 f   pjlib-i386-win32-vc8-release:os_core_win32.obj
 0001:00029830       _pj_rwmutex_unlock_write   0042a830 f   pjlib-i386-win32-vc8-release:os_core_win32.obj
 0001:00029850       _pj_rwmutex_destroy        0042a850 f   pjlib-i386-win32-vc8-release:os_core_win32.obj
 0001:00029880       _pj_array_insert           0042a880 f   pjlib-i386-win32-vc8-release:array.obj
 0001:000298e0       _pj_array_erase            0042a8e0 f   pjlib-i386-win32-vc8-release:array.obj
 0001:00029920       _pj_str                    0042a920 f   pjlib-i386-win32-vc8-release:string.obj
 0001:00029940       _pj_strdup                 0042a940 f   pjlib-i386-win32-vc8-release:string.obj
 0001:00029980       _pj_strdup_with_null       0042a980 f   pjlib-i386-win32-vc8-release:string.obj
 0001:000299d0       _pj_strdup2                0042a9d0 f   pjlib-i386-win32-vc8-release:string.obj
 0001:00029a30       _pj_strdup2_with_null      0042aa30 f   pjlib-i386-win32-vc8-release:string.obj
 0001:00029a90       _pj_strassign              0042aa90 f   pjlib-i386-win32-vc8-release:string.obj
 0001:00029ab0       _pj_strcpy                 0042aab0 f   pjlib-i386-win32-vc8-release:string.obj
 0001:00029ae0       _pj_strcpy2                0042aae0 f   pjlib-i386-win32-vc8-release:string.obj
 0001:00029b20       _pj_strncpy                0042ab20 f   pjlib-i386-win32-vc8-release:string.obj
 0001:00029b50       _pj_strncpy_with_null      0042ab50 f   pjlib-i386-win32-vc8-release:string.obj
 0001:00029b90       _pj_strcmp                 0042ab90 f   pjlib-i386-win32-vc8-release:string.obj
 0001:00029bf0       _pj_strcmp2                0042abf0 f   pjlib-i386-win32-vc8-release:string.obj
 0001:00029c50       _pj_stricmp                0042ac50 f   pjlib-i386-win32-vc8-release:string.obj
 0001:00029cc0       _pj_stricmp2               0042acc0 f   pjlib-i386-win32-vc8-release:string.obj
 0001:00029d20       _pj_strnicmp               0042ad20 f   pjlib-i386-win32-vc8-release:string.obj
 0001:00029d60       _pj_strcat                 0042ad60 f   pjlib-i386-win32-vc8-release:string.obj
 0001:00029d90       _pj_strcat2                0042ad90 f   pjlib-i386-win32-vc8-release:string.obj
 0001:00029dd0       _pj_strstr                 0042add0 f   pjlib-i386-win32-vc8-release:string.obj
 0001:00029e30       _pj_strltrim               0042ae30 f   pjlib-i386-win32-vc8-release:string.obj
 0001:00029e80       _pj_strrtrim               0042ae80 f   pjlib-i386-win32-vc8-release:string.obj
 0001:00029ec0       _pj_strtoul                0042aec0 f   pjlib-i386-win32-vc8-release:string.obj
 0001:00029f20       _pj_strtoul2               0042af20 f   pjlib-i386-win32-vc8-release:string.obj
 0001:00029fe0       _pj_utoa_pad               0042afe0 f   pjlib-i386-win32-vc8-release:string.obj
 0001:0002a060       _pj_strtrim                0042b060 f   pjlib-i386-win32-vc8-release:string.obj
 0001:0002a080       _pj_utoa                   0042b080 f   pjlib-i386-win32-vc8-release:string.obj
 0001:0002a0a0       _pj_sockaddr_in_set_str_addr 0042b0a0 f   pjlib-i386-win32-vc8-release:sock_common.obj
 0001:0002a150       _pj_sockaddr_set_str_addr  0042b150 f   pjlib-i386-win32-vc8-release:sock_common.obj
 0001:0002a280       _pj_sockaddr_get_addr      0042b280 f   pjlib-i386-win32-vc8-release:sock_common.obj
 0001:0002a2b0       _pj_sockaddr_has_addr      0042b2b0 f   pjlib-i386-win32-vc8-release:sock_common.obj
 0001:0002a350       _pj_sockaddr_get_port      0042b350 f   pjlib-i386-win32-vc8-release:sock_common.obj
 0001:0002a380       _pj_sockaddr_get_addr_len  0042b380 f   pjlib-i386-win32-vc8-release:sock_common.obj
 0001:0002a3c0       _pj_sockaddr_get_len       0042b3c0 f   pjlib-i386-win32-vc8-release:sock_common.obj
 0001:0002a400       _pj_sockaddr_copy_addr     0042b400 f   pjlib-i386-win32-vc8-release:sock_common.obj
 0001:0002a480       _pj_sockaddr_cp            0042b480 f   pjlib-i386-win32-vc8-release:sock_common.obj
 0001:0002a4e0       _pj_sockaddr_set_port      0042b4e0 f   pjlib-i386-win32-vc8-release:sock_common.obj
 0001:0002a540       _pj_sockaddr_print         0042b540 f   pjlib-i386-win32-vc8-release:sock_common.obj
 0001:0002a670       _pj_sockaddr_in_init       0042b670 f   pjlib-i386-win32-vc8-release:sock_common.obj
 0001:0002a6c0       _pj_sockaddr_init          0042b6c0 f   pjlib-i386-win32-vc8-release:sock_common.obj
 0001:0002a750       _pj_sockaddr_cmp           0042b750 f   pjlib-i386-win32-vc8-release:sock_common.obj
 0001:0002a820       _pj_getipinterface         0042b820 f   pjlib-i386-win32-vc8-release:sock_common.obj
 0001:0002aa10       _pj_gethostip              0042ba10 f   pjlib-i386-win32-vc8-release:sock_common.obj
 0001:0002b2e0       _pj_ntohs                  0042c2e0 f   pjlib-i386-win32-vc8-release:sock_bsd.obj
 0001:0002b2f0       _pj_htons                  0042c2f0 f   pjlib-i386-win32-vc8-release:sock_bsd.obj
 0001:0002b300       _pj_ntohl                  0042c300 f   pjlib-i386-win32-vc8-release:sock_bsd.obj
 0001:0002b310       _pj_htonl                  0042c310 f   pjlib-i386-win32-vc8-release:sock_bsd.obj
 0001:0002b320       _pj_inet_aton              0042c320 f   pjlib-i386-win32-vc8-release:sock_bsd.obj
 0001:0002b3a0       _pj_inet_pton              0042c3a0 f   pjlib-i386-win32-vc8-release:sock_bsd.obj
 0001:0002b510       _pj_inet_ntop              0042c510 f   pjlib-i386-win32-vc8-release:sock_bsd.obj
 0001:0002b650       _pj_gethostname            0042c650 f   pjlib-i386-win32-vc8-release:sock_bsd.obj
 0001:0002b6d0       _pj_sock_socket            0042c6d0 f   pjlib-i386-win32-vc8-release:sock_bsd.obj
 0001:0002b780       _pj_sock_bind              0042c780 f   pjlib-i386-win32-vc8-release:sock_bsd.obj
 0001:0002b7e0       _pj_sock_close             0042c7e0 f   pjlib-i386-win32-vc8-release:sock_bsd.obj
 0001:0002b830       _pj_sock_getsockname       0042c830 f   pjlib-i386-win32-vc8-release:sock_bsd.obj
 0001:0002b890       _pj_sock_send              0042c890 f   pjlib-i386-win32-vc8-release:sock_bsd.obj
 0001:0002b900       _pj_sock_sendto            0042c900 f   pjlib-i386-win32-vc8-release:sock_bsd.obj
 0001:0002b970       _pj_sock_recv              0042c970 f   pjlib-i386-win32-vc8-release:sock_bsd.obj
 0001:0002b9e0       _pj_sock_recvfrom          0042c9e0 f   pjlib-i386-win32-vc8-release:sock_bsd.obj
 0001:0002ba60       _pj_sock_getsockopt        0042ca60 f   pjlib-i386-win32-vc8-release:sock_bsd.obj
 0001:0002bad0       _pj_sock_setsockopt        0042cad0 f   pjlib-i386-win32-vc8-release:sock_bsd.obj
 0001:0002bb50       _pj_sock_setsockopt_params 0042cb50 f   pjlib-i386-win32-vc8-release:sock_bsd.obj
 0001:0002bbe0       _pj_sock_connect           0042cbe0 f   pjlib-i386-win32-vc8-release:sock_bsd.obj
 0001:0002bc40       _pj_sock_listen            0042cc40 f   pjlib-i386-win32-vc8-release:sock_bsd.obj
 0001:0002bc90       _pj_sock_accept            0042cc90 f   pjlib-i386-win32-vc8-release:sock_bsd.obj
 0001:0002bd80       _pj_lock_create_simple_mutex 0042cd80 f   pjlib-i386-win32-vc8-release:lock.obj
 0001:0002bda0       _pj_lock_create_recursive_mutex 0042cda0 f   pjlib-i386-win32-vc8-release:lock.obj
 0001:0002bdc0       _pj_lock_create_null_mutex 0042cdc0 f   pjlib-i386-win32-vc8-release:lock.obj
 0001:0002bde0       _pj_lock_acquire           0042cde0 f   pjlib-i386-win32-vc8-release:lock.obj
 0001:0002be00       _pj_lock_tryacquire        0042ce00 f   pjlib-i386-win32-vc8-release:lock.obj
 0001:0002be20       _pj_lock_release           0042ce20 f   pjlib-i386-win32-vc8-release:lock.obj
 0001:0002be40       _pj_lock_destroy           0042ce40 f   pjlib-i386-win32-vc8-release:lock.obj
 0001:0002bf10       _pj_grp_lock_add_ref       0042cf10 f   pjlib-i386-win32-vc8-release:lock.obj
 0001:0002c040       _pj_grp_lock_acquire       0042d040 f   pjlib-i386-win32-vc8-release:lock.obj
 0001:0002c050       _pj_grp_lock_tryacquire    0042d050 f   pjlib-i386-win32-vc8-release:lock.obj
 0001:0002c060       _pj_grp_lock_dec_ref       0042d060 f   pjlib-i386-win32-vc8-release:lock.obj
 0001:0002c100       _pj_grp_lock_create        0042d100 f   pjlib-i386-win32-vc8-release:lock.obj
 0001:0002c1f0       _pj_grp_lock_create_w_handler 0042d1f0 f   pjlib-i386-win32-vc8-release:lock.obj
 0001:0002c250       _pj_grp_lock_release       0042d250 f   pjlib-i386-win32-vc8-release:lock.obj
 0001:0002c260       _pj_grp_lock_add_handler   0042d260 f   pjlib-i386-win32-vc8-release:lock.obj
 0001:0002c2b0       _pj_rand                   0042d2b0 f   pjlib-i386-win32-vc8-release:rand.obj
 0001:0002c2e0       _pj_time_val_normalize     0042d2e0 f   pjlib-i386-win32-vc8-release:types.obj
 0001:0002c3e0       _pj_gettimeofday           0042d3e0 f   pjlib-i386-win32-vc8-release:os_time_win32.obj
 0001:0002c450       _pj_time_decode            0042d450 f   pjlib-i386-win32-vc8-release:os_time_win32.obj
 0001:0002c910       _pj_timer_heap_create      0042d910 f   pjlib-i386-win32-vc8-release:timer.obj
 0001:0002c9d0       _pj_timer_heap_destroy     0042d9d0 f   pjlib-i386-win32-vc8-release:timer.obj
 0001:0002ca00       _pj_timer_heap_set_lock    0042da00 f   pjlib-i386-win32-vc8-release:timer.obj
 0001:0002ca50       _pj_timer_heap_set_max_timed_out_per_poll 0042da50 f   pjlib-i386-win32-vc8-release:timer.obj
 0001:0002ca60       _pj_timer_entry_init       0042da60 f   pjlib-i386-win32-vc8-release:timer.obj
 0001:0002ca90       _pj_timer_entry_running    0042da90 f   pjlib-i386-win32-vc8-release:timer.obj
 0001:0002cb80       _pj_timer_heap_schedule    0042db80 f   pjlib-i386-win32-vc8-release:timer.obj
 0001:0002cba0       _pj_timer_heap_schedule_w_grp_lock 0042dba0 f   pjlib-i386-win32-vc8-release:timer.obj
 0001:0002cbd0       _pj_timer_heap_cancel      0042dbd0 f   pjlib-i386-win32-vc8-release:timer.obj
 0001:0002cc40       _pj_timer_heap_cancel_if_active 0042dc40 f   pjlib-i386-win32-vc8-release:timer.obj
 0001:0002ccb0       _pj_timer_heap_poll        0042dcb0 f   pjlib-i386-win32-vc8-release:timer.obj
 0001:0002ce30       _pj_ioqueue_set_lock       0042de30 f   pjlib-i386-win32-vc8-release:ioqueue_select.obj
 0001:0002ce70       _pj_ioqueue_get_user_data  0042de70 f   pjlib-i386-win32-vc8-release:ioqueue_select.obj
 0001:0002ce80       _pj_ioqueue_op_key_init    0042de80 f   pjlib-i386-win32-vc8-release:ioqueue_select.obj
 0001:0002cea0       _pj_ioqueue_is_pending     0042dea0 f   pjlib-i386-win32-vc8-release:ioqueue_select.obj
 0001:0002ceb0       _pj_ioqueue_set_concurrency 0042deb0 f   pjlib-i386-win32-vc8-release:ioqueue_select.obj
 0001:0002ced0       _pj_ioqueue_lock_key       0042ded0 f   pjlib-i386-win32-vc8-release:ioqueue_select.obj
 0001:0002cef0       _pj_ioqueue_unlock_key     0042def0 f   pjlib-i386-win32-vc8-release:ioqueue_select.obj
 0001:0002cf10       _pj_ioqueue_create         0042df10 f   pjlib-i386-win32-vc8-release:ioqueue_select.obj
 0001:0002d0c0       _pj_ioqueue_destroy        0042e0c0 f   pjlib-i386-win32-vc8-release:ioqueue_select.obj
 0001:0002d240       _pj_ioqueue_unregister     0042e240 f   pjlib-i386-win32-vc8-release:ioqueue_select.obj
 0001:0002d450       _ioqueue_dispatch_write_event 0042e450 f   pjlib-i386-win32-vc8-release:ioqueue_select.obj
 0001:0002d730       _ioqueue_dispatch_read_event 0042e730 f   pjlib-i386-win32-vc8-release:ioqueue_select.obj
 0001:0002d960       _ioqueue_dispatch_exception_event 0042e960 f   pjlib-i386-win32-vc8-release:ioqueue_select.obj
 0001:0002dac0       _pj_ioqueue_recv           0042eac0 f   pjlib-i386-win32-vc8-release:ioqueue_select.obj
 0001:0002dbf0       _pj_ioqueue_recvfrom       0042ebf0 f   pjlib-i386-win32-vc8-release:ioqueue_select.obj
 0001:0002dd40       _pj_ioqueue_send           0042ed40 f   pjlib-i386-win32-vc8-release:ioqueue_select.obj
 0001:0002def0       _pj_ioqueue_sendto         0042eef0 f   pjlib-i386-win32-vc8-release:ioqueue_select.obj
 0001:0002e0a0       _pj_ioqueue_accept         0042f0a0 f   pjlib-i386-win32-vc8-release:ioqueue_select.obj
 0001:0002e1e0       _pj_ioqueue_connect        0042f1e0 f   pjlib-i386-win32-vc8-release:ioqueue_select.obj
 0001:0002e2d0       _pj_ioqueue_register_sock2 0042f2d0 f   pjlib-i386-win32-vc8-release:ioqueue_select.obj
 0001:0002e3e0       _pj_ioqueue_poll           0042f3e0 f   pjlib-i386-win32-vc8-release:ioqueue_select.obj
 0001:0002e6c0       _pj_hash_calc              0042f6c0 f   pjlib-i386-win32-vc8-release:hash.obj
 0001:0002e730       _pj_hash_calc_tolower      0042f730 f   pjlib-i386-win32-vc8-release:hash.obj
 0001:0002e780       _pj_hash_create            0042f780 f   pjlib-i386-win32-vc8-release:hash.obj
 0001:0002e980       _pj_hash_get               0042f980 f   pjlib-i386-win32-vc8-release:hash.obj
 0001:0002e9b0       _pj_hash_get_lower         0042f9b0 f   pjlib-i386-win32-vc8-release:hash.obj
 0001:0002e9e0       _pj_hash_set               0042f9e0 f   pjlib-i386-win32-vc8-release:hash.obj
 0001:0002ea40       _pj_hash_set_lower         0042fa40 f   pjlib-i386-win32-vc8-release:hash.obj
 0001:0002eaa0       _pj_hash_set_np            0042faa0 f   pjlib-i386-win32-vc8-release:hash.obj
 0001:0002eb00       _pj_hash_set_np_lower      0042fb00 f   pjlib-i386-win32-vc8-release:hash.obj
 0001:0002eb60       _pj_hash_count             0042fb60 f   pjlib-i386-win32-vc8-release:hash.obj
 0001:0002eb70       _pj_hash_first             0042fb70 f   pjlib-i386-win32-vc8-release:hash.obj
 0001:0002ebb0       _pj_hash_next              0042fbb0 f   pjlib-i386-win32-vc8-release:hash.obj
 0001:0002ec00       _pj_hash_this              0042fc00 f   pjlib-i386-win32-vc8-release:hash.obj
 0001:0002ec90       _pj_push_exception_handler_ 0042fc90 f   pjlib-i386-win32-vc8-release:except.obj
 0001:0002ece0       _pj_pop_exception_handler_ 0042fce0 f   pjlib-i386-win32-vc8-release:except.obj
 0001:0002ed10       _pj_exception_id_alloc     0042fd10 f   pjlib-i386-win32-vc8-release:except.obj
 0001:0002ed60       _pj_exception_id_free      0042fd60 f   pjlib-i386-win32-vc8-release:except.obj
 0001:0002ed90       _pj_exception_id_name      0042fd90 f   pjlib-i386-win32-vc8-release:except.obj
 0001:0002edd0       _pj_throw_exception_       0042fdd0 f   pjlib-i386-win32-vc8-release:except.obj
 0001:0002ee70       _pj_get_timestamp          0042fe70 f   pjlib-i386-win32-vc8-release:os_timestamp_win32.obj
 0001:0002eed0       _pj_get_timestamp_freq     0042fed0 f   pjlib-i386-win32-vc8-release:os_timestamp_win32.obj
 0001:0002ef30       _pj_get_netos_error        0042ff30 f   pjlib-i386-win32-vc8-release:os_error_win32.obj
 0001:0002ef50       _platform_strerror         0042ff50 f   pjlib-i386-win32-vc8-release:os_error_win32.obj
 0001:0002f040       _pj_create_unique_string   00430040 f   pjlib-i386-win32-vc8-release:guid.obj
 0001:0002f060       _pj_GUID_STRING_LENGTH     00430060 f   pjlib-i386-win32-vc8-release:guid_win32.obj
 0001:0002f160       _pj_generate_unique_string 00430160 f   pjlib-i386-win32-vc8-release:guid_win32.obj
 0001:0002f1b0       _pj_qos_get_params         004301b0 f   pjlib-i386-win32-vc8-release:sock_qos_common.obj
 0001:0002f1e0       _pj_sock_apply_qos         004301e0 f   pjlib-i386-win32-vc8-release:sock_qos_common.obj
 0001:0002f2a0       _pj_sock_apply_qos2        004302a0 f   pjlib-i386-win32-vc8-release:sock_qos_common.obj
 0001:0002f2e0       _pj_activesock_cfg_default 004302e0 f   pjlib-i386-win32-vc8-release:activesock.obj
 0001:0002f300       _pj_activesock_close       00430300 f   pjlib-i386-win32-vc8-release:activesock.obj
 0001:0002f330       _pj_activesock_get_user_data 00430330 f   pjlib-i386-win32-vc8-release:activesock.obj
 0001:0002f340       _pj_activesock_start_read2 00430340 f   pjlib-i386-win32-vc8-release:activesock.obj
 0001:0002f6a0       _pj_activesock_send        004306a0 f   pjlib-i386-win32-vc8-release:activesock.obj
 0001:0002f7e0       _pj_activesock_start_accept 004307e0 f   pjlib-i386-win32-vc8-release:activesock.obj
 0001:0002f9f0       _pj_activesock_start_connect 004309f0 f   pjlib-i386-win32-vc8-release:activesock.obj
 0001:0002fa50       _pj_activesock_create      00430a50 f   pjlib-i386-win32-vc8-release:activesock.obj
 0001:0002fc20       _pj_elapsed_time           00430c20 f   pjlib-i386-win32-vc8-release:os_timestamp_common.obj
 0001:0002fcb0       _pj_gettickcount           00430cb0 f   pjlib-i386-win32-vc8-release:os_timestamp_common.obj
 0001:0002fcf0       _pj_gethostbyname          00430cf0 f   pjlib-i386-win32-vc8-release:addr_resolv_sock.obj
 0001:0002fdc0       _pj_getaddrinfo            00430dc0 f   pjlib-i386-win32-vc8-release:addr_resolv_sock.obj
 0001:0002ff80       _pj_pool_create_on_buf     00430f80 f   pjlib-i386-win32-vc8-release:pool_buf.obj
 0001:00030020       _pj_log_write              00431020 f   pjlib-i386-win32-vc8-release:log_writer_stdout.obj
 0001:00030650       _pj_enum_ip_interface      00431650 f   pjlib-i386-win32-vc8-release:ip_helper_win32.obj
 0001:000306d0       _PJ_FD_ZERO                004316d0 f   pjlib-i386-win32-vc8-release:sock_select.obj
 0001:00030700       _PJ_FD_ISSET               00431700 f   pjlib-i386-win32-vc8-release:sock_select.obj
 0001:00030730       _PJ_FD_COUNT               00431730 f   pjlib-i386-win32-vc8-release:sock_select.obj
 0001:00030740       _pj_sock_select            00431740 f   pjlib-i386-win32-vc8-release:sock_select.obj
 0001:000307d0       _PJ_FD_SET                 004317d0 f   pjlib-i386-win32-vc8-release:sock_select.obj
 0001:00030830       _PJ_FD_CLR                 00431830 f   pjlib-i386-win32-vc8-release:sock_select.obj
 0001:000308b0       _pj_sock_set_qos_params    004318b0 f   pjlib-i386-win32-vc8-release:sock_qos_bsd.obj
 0001:00030950       _pj_sock_set_qos_type      00431950 f   pjlib-i386-win32-vc8-release:sock_qos_bsd.obj
 0001:0003097e       ___WSAFDIsSet@8            0043197e f   ws2_32:WS2_32.dll
 0001:00030984       _memset                    00431984 f   MSVCRT:MSVCR90.dll
 0001:0003098a       @__security_check_cookie@4 0043198a f   MSVCRT:secchk.obj
 0001:00030c3b       _mainCRTStartup            00431c3b f   MSVCRT:crtexe.obj
 0001:00030c46       _memcpy                    00431c46 f   MSVCRT:MSVCR90.dll
 0001:00030c4c       __setjmp3                  00431c4c f   MSVCRT:MSVCR90.dll
 0001:00030c60       __alldiv                   00431c60 f   MSVCRT:lldiv.obj
 0001:00030d10       __allmul                   00431d10 f   MSVCRT:llmul.obj
 0001:00030d50       __ftol2_sse                00431d50 f   MSVCRT:ftol2.obj
 0001:00030d59       __ftol2_pentium4           00431d59 f   MSVCRT:ftol2.obj
 0001:00030d6c       __ftol2_sse_excpt          00431d6c f   MSVCRT:ftol2.obj
 0001:00030d86       __ftol2                    00431d86 f   MSVCRT:ftol2.obj
 0001:00030dfc       __CIfmod                   00431dfc f   MSVCRT:MSVCR90.dll
 0001:00030e02       ___report_gsfailure        00431e02 f   MSVCRT:gs_report.obj
 0001:00030f08       ?__CxxUnhandledExceptionFilter@@YGJPAU_EXCEPTION_POINTERS@@@Z 00431f08 f   MSVCRT:unhandld.obj
 0001:00030f4a       ___CxxSetUnhandledExceptionFilter 00431f4a f   MSVCRT:unhandld.obj
 0001:00030f58       __amsg_exit                00431f58 f   MSVCRT:MSVCR90.dll
 0001:00030f5e       __onexit                   00431f5e f   MSVCRT:atonexit.obj
 0001:00031003       _atexit                    00432003 f   MSVCRT:atonexit.obj
 0001:0003101a       __RTC_Initialize           0043201a f   MSVCRT:_initsect_.obj
 0001:00031040       __RTC_Terminate            00432040 f   MSVCRT:_initsect_.obj
 0001:00031066       __XcptFilter               00432066 f   MSVCRT:MSVCR90.dll
 0001:00031070       __ValidateImageBase        00432070 f   MSVCRT:pesect.obj
 0001:000310b0       __FindPESection            004320b0 f   MSVCRT:pesect.obj
 0001:00031100       __IsNonwritableInCurrentImage 00432100 f   MSVCRT:pesect.obj
 0001:000311be       __initterm                 004321be f   MSVCRT:MSVCR90.dll
 0001:000311c4       __initterm_e               004321c4 f   MSVCRT:MSVCR90.dll
 0001:000311cc       __SEH_prolog4              004321cc f   MSVCRT:sehprolg4.obj
 0001:00031211       __SEH_epilog4              00432211 f   MSVCRT:sehprolg4.obj
 0001:00031225       __except_handler4          00432225 f   MSVCRT:chandler4gs.obj
 0001:0003124a       __setdefaultprecision      0043224a f   MSVCRT:fp8.obj
 0001:00031275       __setargv                  00432275 f   MSVCRT:dllargv.obj
 0001:00031275       __matherr                  00432275 f   MSVCRT:merr.obj
 0001:00031278       ___security_init_cookie    00432278 f   MSVCRT:gs_support.obj
 0001:0003135e       __get_sse2_info            0043235e f   MSVCRT:cpu_disp.obj
 0001:000313c0       ___sse2_available_init     004323c0 f   MSVCRT:cpu_disp.obj
 0001:000313ce       __crt_debugger_hook        004323ce f   MSVCRT:MSVCR90.dll
 0001:000313d4       ?terminate@@YAXXZ          004323d4 f   MSVCRT:MSVCR90.dll
 0001:000313da       __unlock                   004323da f   MSVCRT:MSVCR90.dll
 0001:000313e0       ___dllonexit               004323e0 f   MSVCRT:MSVCR90.dll
 0001:000313e6       __lock                     004323e6 f   MSVCRT:MSVCR90.dll
 0001:000313ec       __except_handler4_common   004323ec f   MSVCRT:MSVCR90.dll
 0001:000313f2       __invoke_watson            004323f2 f   MSVCRT:MSVCR90.dll
 0001:000313f8       __controlfp_s              004323f8 f   MSVCRT:MSVCR90.dll
 0002:00000000       __imp__GetSystemTimeAsFileTime@4 00433000     kernel32:KERNEL32.dll
 0002:00000004       __imp__GetTickCount@0      00433004     kernel32:KERNEL32.dll
 0002:00000008       __imp__IsDebuggerPresent@0 00433008     kernel32:KERNEL32.dll
 0002:0000000c       __imp__SetUnhandledExceptionFilter@4 0043300c     kernel32:KERNEL32.dll
 0002:00000010       __imp__UnhandledExceptionFilter@4 00433010     kernel32:KERNEL32.dll
 0002:00000014       __imp__GetCurrentProcess@0 00433014     kernel32:KERNEL32.dll
 0002:00000018       __imp__TerminateProcess@8  00433018     kernel32:KERNEL32.dll
 0002:0000001c       __imp__InterlockedCompareExchange@12 0043301c     kernel32:KERNEL32.dll
 0002:00000020       __imp__LoadLibraryA@4      00433020     kernel32:KERNEL32.dll
 0002:00000024       __imp__GetProcAddress@8    00433024     kernel32:KERNEL32.dll
 0002:00000028       __imp__FreeLibrary@4       00433028     kernel32:KERNEL32.dll
 0002:0000002c       __imp__FormatMessageA@28   0043302c     kernel32:KERNEL32.dll
 0002:00000030       __imp__QueryPerformanceFrequency@4 00433030     kernel32:KERNEL32.dll
 0002:00000034       __imp__QueryPerformanceCounter@4 00433034     kernel32:KERNEL32.dll
 0002:00000038       __imp__FileTimeToSystemTime@8 00433038     kernel32:KERNEL32.dll
 0002:0000003c       __imp__GetLocalTime@4      0043303c     kernel32:KERNEL32.dll
 0002:00000040       __imp__SystemTimeToFileTime@8 00433040     kernel32:KERNEL32.dll
 0002:00000044       __imp__Sleep@4             00433044     kernel32:KERNEL32.dll
 0002:00000048       __imp__CreateThread@24     00433048     kernel32:KERNEL32.dll
 0002:0000004c       __imp__GetCurrentProcessId@0 0043304c     kernel32:KERNEL32.dll
 0002:00000050       __imp__GetStdHandle@4      00433050     kernel32:KERNEL32.dll
 0002:00000054       __imp__SetConsoleTextAttribute@8 00433054     kernel32:KERNEL32.dll
 0002:00000058       __imp__CloseHandle@4       00433058     kernel32:KERNEL32.dll
 0002:0000005c       __imp__ReleaseSemaphore@12 0043305c     kernel32:KERNEL32.dll
 0002:00000060       __imp__WaitForSingleObject@8 00433060     kernel32:KERNEL32.dll
 0002:00000064       __imp__CreateSemaphoreA@16 00433064     kernel32:KERNEL32.dll
 0002:00000068       __imp__DeleteCriticalSection@4 00433068     kernel32:KERNEL32.dll
 0002:0000006c       __imp__TryEnterCriticalSection@4 0043306c     kernel32:KERNEL32.dll
 0002:00000070       __imp__EnterCriticalSection@4 00433070     kernel32:KERNEL32.dll
 0002:00000074       __imp__InitializeCriticalSection@4 00433074     kernel32:KERNEL32.dll
 0002:00000078       __imp__TlsFree@4           00433078     kernel32:KERNEL32.dll
 0002:0000007c       __imp__InterlockedDecrement@4 0043307c     kernel32:KERNEL32.dll
 0002:00000080       __imp__InterlockedIncrement@4 00433080     kernel32:KERNEL32.dll
 0002:00000084       __imp__InterlockedExchange@8 00433084     kernel32:KERNEL32.dll
 0002:00000088       __imp__GetCurrentThread@0  00433088     kernel32:KERNEL32.dll
 0002:0000008c       __imp__GetCurrentThreadId@0 0043308c     kernel32:KERNEL32.dll
 0002:00000090       __imp__TlsGetValue@4       00433090     kernel32:KERNEL32.dll
 0002:00000094       __imp__TlsSetValue@8       00433094     kernel32:KERNEL32.dll
 0002:00000098       __imp__TlsAlloc@0          00433098     kernel32:KERNEL32.dll
 0002:0000009c       __imp__GetLastError@0      0043309c     kernel32:KERNEL32.dll
 0002:000000a0       __imp__LeaveCriticalSection@4 004330a0     kernel32:KERNEL32.dll
 0002:000000a4       \177KERNEL32_NULL_THUNK_DATA 004330a4     kernel32:KERNEL32.dll
 0002:000000a8       __imp__tolower             004330a8     MSVCRT:MSVCR90.dll
 0002:000000ac       __imp___strnicmp           004330ac     MSVCRT:MSVCR90.dll
 0002:000000b0       __imp__isspace             004330b0     MSVCRT:MSVCR90.dll
 0002:000000b4       __imp__isxdigit            004330b4     MSVCRT:MSVCR90.dll
 0002:000000b8       __imp__strchr              004330b8     MSVCRT:MSVCR90.dll
 0002:000000bc       __imp__strncpy             004330bc     MSVCRT:MSVCR90.dll
 0002:000000c0       __imp___vsnprintf          004330c0     MSVCRT:MSVCR90.dll
 0002:000000c4       __imp__rand                004330c4     MSVCRT:MSVCR90.dll
 0002:000000c8       __imp__longjmp             004330c8     MSVCRT:MSVCR90.dll
 0002:000000cc       __imp___CIfmod             004330cc     MSVCRT:MSVCR90.dll
 0002:000000d0       __imp__malloc              004330d0     MSVCRT:MSVCR90.dll
 0002:000000d4       __imp__free                004330d4     MSVCRT:MSVCR90.dll
 0002:000000d8       __imp___amsg_exit          004330d8     MSVCRT:MSVCR90.dll
 0002:000000dc       __imp____getmainargs       004330dc     MSVCRT:MSVCR90.dll
 0002:000000e0       __imp___cexit              004330e0     MSVCRT:MSVCR90.dll
 0002:000000e4       __imp___exit               004330e4     MSVCRT:MSVCR90.dll
 0002:000000e8       __imp___XcptFilter         004330e8     MSVCRT:MSVCR90.dll
 0002:000000ec       __imp__exit                004330ec     MSVCRT:MSVCR90.dll
 0002:000000f0       __imp____initenv           004330f0     MSVCRT:MSVCR90.dll
 0002:000000f4       __imp___initterm           004330f4     MSVCRT:MSVCR90.dll
 0002:000000f8       __imp___initterm_e         004330f8     MSVCRT:MSVCR90.dll
 0002:000000fc       __imp___configthreadlocale 004330fc     MSVCRT:MSVCR90.dll
 0002:00000100       __imp____setusermatherr    00433100     MSVCRT:MSVCR90.dll
 0002:00000104       __imp___adjust_fdiv        00433104     MSVCRT:MSVCR90.dll
 0002:00000108       __imp____p__commode        00433108     MSVCRT:MSVCR90.dll
 0002:0000010c       __imp____p__fmode          0043310c     MSVCRT:MSVCR90.dll
 0002:00000110       __imp___encode_pointer     00433110     MSVCRT:MSVCR90.dll
 0002:00000114       __imp____set_app_type      00433114     MSVCRT:MSVCR90.dll
 0002:00000118       __imp___crt_debugger_hook  00433118     MSVCRT:MSVCR90.dll
 0002:0000011c       __imp_?terminate@@YAXXZ    0043311c     MSVCRT:MSVCR90.dll
 0002:00000120       __imp___unlock             00433120     MSVCRT:MSVCR90.dll
 0002:00000124       __imp____dllonexit         00433124     MSVCRT:MSVCR90.dll
 0002:00000128       __imp___lock               00433128     MSVCRT:MSVCR90.dll
 0002:0000012c       __imp___onexit             0043312c     MSVCRT:MSVCR90.dll
 0002:00000130       __imp___decode_pointer     00433130     MSVCRT:MSVCR90.dll
 0002:00000134       __imp___except_handler4_common 00433134     MSVCRT:MSVCR90.dll
 0002:00000138       __imp___invoke_watson      00433138     MSVCRT:MSVCR90.dll
 0002:0000013c       __imp___controlfp_s        0043313c     MSVCRT:MSVCR90.dll
 0002:00000140       __imp__memmove             00433140     MSVCRT:MSVCR90.dll
 0002:00000144       __imp__memchr              00433144     MSVCRT:MSVCR90.dll
 0002:00000148       __imp__toupper             00433148     MSVCRT:MSVCR90.dll
 0002:0000014c       __imp___setjmp3            0043314c     MSVCRT:MSVCR90.dll
 0002:00000150       __imp__isdigit             00433150     MSVCRT:MSVCR90.dll
 0002:00000154       __imp___snprintf           00433154     MSVCRT:MSVCR90.dll
 0002:00000158       __imp__memcpy              00433158     MSVCRT:MSVCR90.dll
 0002:0000015c       __imp__atoi                0043315c     MSVCRT:MSVCR90.dll
 0002:00000160       __imp__puts                00433160     MSVCRT:MSVCR90.dll
 0002:00000164       __imp__fgets               00433164     MSVCRT:MSVCR90.dll
 0002:00000168       __imp____iob_func          00433168     MSVCRT:MSVCR90.dll
 0002:0000016c       __imp__printf              0043316c     MSVCRT:MSVCR90.dll
 0002:00000170       __imp__sprintf             00433170     MSVCRT:MSVCR90.dll
 0002:00000174       __imp__strtol              00433174     MSVCRT:MSVCR90.dll
 0002:00000178       __imp__memset              00433178     MSVCRT:MSVCR90.dll
 0002:0000017c       __imp__strncmp             0043317c     MSVCRT:MSVCR90.dll
 0002:00000180       \177MSVCR90_NULL_THUNK_DATA 00433180     MSVCRT:MSVCR90.dll
 0002:00000184       __imp__select@20           00433184     ws2_32:WS2_32.dll
 0002:00000188       __imp____WSAFDIsSet@8      00433188     ws2_32:WS2_32.dll
 0002:0000018c       __imp__gethostbyname@4     0043318c     ws2_32:WS2_32.dll
 0002:00000190       __imp__ioctlsocket@12      00433190     ws2_32:WS2_32.dll
 0002:00000194       __imp__accept@12           00433194     ws2_32:WS2_32.dll
 0002:00000198       __imp__listen@8            00433198     ws2_32:WS2_32.dll
 0002:0000019c       __imp__connect@12          0043319c     ws2_32:WS2_32.dll
 0002:000001a0       __imp__setsockopt@20       004331a0     ws2_32:WS2_32.dll
 0002:000001a4       __imp__getsockopt@20       004331a4     ws2_32:WS2_32.dll
 0002:000001a8       __imp__recvfrom@24         004331a8     ws2_32:WS2_32.dll
 0002:000001ac       __imp__recv@16             004331ac     ws2_32:WS2_32.dll
 0002:000001b0       __imp__sendto@24           004331b0     ws2_32:WS2_32.dll
 0002:000001b4       __imp__send@16             004331b4     ws2_32:WS2_32.dll
 0002:000001b8       __imp__getsockname@12      004331b8     ws2_32:WS2_32.dll
 0002:000001bc       __imp__closesocket@4       004331bc     ws2_32:WS2_32.dll
 0002:000001c0       __imp__bind@12             004331c0     ws2_32:WS2_32.dll
 0002:000001c4       __imp__WSASocketA@24       004331c4     ws2_32:WS2_32.dll
 0002:000001c8       __imp__WSAIoctl@36         004331c8     ws2_32:WS2_32.dll
 0002:000001cc       __imp__gethostname@8       004331cc     ws2_32:WS2_32.dll
 0002:000001d0       __imp__WSAAddressToStringA@20 004331d0     ws2_32:WS2_32.dll
 0002:000001d4       __imp__WSAStringToAddressA@20 004331d4     ws2_32:WS2_32.dll
 0002:000001d8       __imp__inet_addr@4         004331d8     ws2_32:WS2_32.dll
 0002:000001dc       __imp__htonl@4             004331dc     ws2_32:WS2_32.dll
 0002:000001e0       __imp__ntohl@4             004331e0     ws2_32:WS2_32.dll
 0002:000001e4       __imp__htons@4             004331e4     ws2_32:WS2_32.dll
 0002:000001e8       __imp__ntohs@4             004331e8     ws2_32:WS2_32.dll
 0002:000001ec       __imp__WSAStartup@8        004331ec     ws2_32:WS2_32.dll
 0002:000001f0       __imp__WSAGetLastError@0   004331f0     ws2_32:WS2_32.dll
 0002:000001f4       \177WS2_32_NULL_THUNK_DATA 004331f4     ws2_32:WS2_32.dll
 0002:000001f8       __imp__CoCreateGuid@4      004331f8     ole32:ole32.dll
 0002:000001fc       \177ole32_NULL_THUNK_DATA  004331fc     ole32:ole32.dll
 0002:00000200       ___xc_a                    00433200     MSVCRT:cinitexe.obj
 0002:00000208       ___xc_z                    00433208     MSVCRT:cinitexe.obj
 0002:0000020c       ___xi_a                    0043320c     MSVCRT:cinitexe.obj
 0002:0000021c       ___xi_z                    0043321c     MSVCRT:cinitexe.obj
 0002:00000220       ??_C@_0L@BLDGPIGK@mod?9invite?$AA@ 00433220     pjsip-ua-i386-win32-vc8-release:sip_inv.obj
 0002:0000022c       ??_C@_06HHJABCJL@UPDATE?$AA@ 0043322c     pjsip-ua-i386-win32-vc8-release:sip_inv.obj
 0002:00000234       ??_C@_0L@ONMJOFAN@TERMINATED?$AA@ 00433234     pjsip-ua-i386-win32-vc8-release:sip_inv.obj
 0002:00000240       ??_C@_0L@GKFIMDLD@DISCONNCTD?$AA@ 00433240     pjsip-ua-i386-win32-vc8-release:sip_inv.obj
 0002:0000024c       ??_C@_09JCKBPFKF@CONFIRMED?$AA@ 0043324c     pjsip-ua-i386-win32-vc8-release:sip_inv.obj
 0002:00000258       ??_C@_0L@OPGIEADC@CONNECTING?$AA@ 00433258     pjsip-ua-i386-win32-vc8-release:sip_inv.obj
 0002:00000264       ??_C@_05HMGOBOK@EARLY?$AA@ 00433264     pjsip-ua-i386-win32-vc8-release:sip_inv.obj
 0002:0000026c       ??_C@_08FPHOKLMI@INCOMING?$AA@ 0043326c     pjsip-ua-i386-win32-vc8-release:sip_inv.obj
 0002:00000278       ??_C@_07BJAKIKLF@CALLING?$AA@ 00433278     pjsip-ua-i386-win32-vc8-release:sip_inv.obj
 0002:00000280       ??_C@_04HIBGFPH@NULL?$AA@  00433280     pjsip-ua-i386-win32-vc8-release:sip_inv.obj
 0002:00000294       ??_C@_0BA@MJOOLNNM@application?1sdp?$AA@ 00433294     pjsip-ua-i386-win32-vc8-release:sip_inv.obj
 0002:000002a4       ??_C@_06JHILMIHF@CANCEL?$AA@ 004332a4     pjsip-ua-i386-win32-vc8-release:sip_inv.obj
 0002:000002ac       ??_C@_03BMFBOCK@BYE?$AA@   004332ac     pjsip-ua-i386-win32-vc8-release:sip_inv.obj
 0002:000002b0       ??_C@_03JMECLKOM@ACK?$AA@  004332b0     pjsip-ua-i386-win32-vc8-release:sip_inv.obj
 0002:000002b4       ??_C@_06DBKGGLMH@INVITE?$AA@ 004332b4     pjsip-ua-i386-win32-vc8-release:sip_inv.obj
 0002:000002bc       ??_C@_0BF@HOOGIPCC@Normal?5call?5clearing?$AA@ 004332bc     pjsip-ua-i386-win32-vc8-release:sip_inv.obj
 0002:000002d4       ??_C@_0M@HAJLPECN@alternative?$AA@ 004332d4     pjsip-ua-i386-win32-vc8-release:sip_inv.obj
 0002:000002e0       ??_C@_05IPHDHIPP@mixed?$AA@ 004332e0     pjsip-ua-i386-win32-vc8-release:sip_inv.obj
 0002:000002e8       ??_C@_09FEKOPBOI@multipart?$AA@ 004332e8     pjsip-ua-i386-win32-vc8-release:sip_inv.obj
 0002:000002f4       ??_C@_0M@MBDKLJIJ@application?$AA@ 004332f4     pjsip-ua-i386-win32-vc8-release:sip_inv.obj
 0002:00000300       ??_C@_03MHNADFJL@sdp?$AA@  00433300     pjsip-ua-i386-win32-vc8-release:sip_inv.obj
 0002:00000304       ??_C@_02HHFHKOHM@?$DP?$DP?$AA@ 00433304     pjsip-ua-i386-win32-vc8-release:sip_inv.obj
 0002:00000308       ??_C@_0CJ@HLKGBANI@UAC?5invite?5session?5created?5for?5d@ 00433308     pjsip-ua-i386-win32-vc8-release:sip_inv.obj
 0002:00000334       ??_C@_05BICJMLFP@inv?$CFp?$AA@ 00433334     pjsip-ua-i386-win32-vc8-release:sip_inv.obj
 0002:0000033c       ??_C@_09LDKIKNFD@sip_inv?4c?$AA@ 0043333c     pjsip-ua-i386-win32-vc8-release:sip_inv.obj
 0002:00000348       ??_C@_0CC@MAIPFFMN@Error?5parsing?1validating?5SDP?5bod@ 00433348     pjsip-ua-i386-win32-vc8-release:sip_inv.obj
 0002:0000036c       ??_C@_05NAPFDJNG@timer?$AA@ 0043336c     pjsip-ua-i386-win32-vc8-release:sip_inv.obj
 0002:00000374       ??_C@_06IPLOHEDL@100rel?$AA@ 00433374     pjsip-ua-i386-win32-vc8-release:sip_inv.obj
 0002:0000037c       ??_C@_0O@BCIKELEF@SIPS?5Required?$AA@ 0043337c     pjsip-ua-i386-win32-vc8-release:sip_inv.obj
 0002:0000038c       ??_C@_03HPDJAPFJ@tls?$AA@  0043338c     pjsip-ua-i386-win32-vc8-release:sip_inv.obj
 0002:00000390       ??_C@_03MPAIKGMI@sip?$AA@  00433390     pjsip-ua-i386-win32-vc8-release:sip_inv.obj
 0002:00000394       ??_C@_04JBGCGIBB@sips?$AA@ 00433394     pjsip-ua-i386-win32-vc8-release:sip_inv.obj
 0002:0000039c       ??_C@_0CJ@EIBALPMO@UAS?5invite?5session?5created?5for?5d@ 0043339c     pjsip-ua-i386-win32-vc8-release:sip_inv.obj
 0002:000003c8       ??_C@_05ECJJFAAP@PRACK?$AA@ 004333c8     pjsip-ua-i386-win32-vc8-release:sip_inv.obj
 0002:000003d0       ??_C@_0CA@LPJKLBPC@SDP?5negotiation?5done?0?5status?$DN?$CFd?$AA@ 004333d0     pjsip-ua-i386-win32-vc8-release:sip_inv.obj
 0002:000003f0       ??_C@_0EG@MIAPKNNJ@Ignoring?5on_rx_offer?$CI?$CJ?5status?5be@ 004333f0     pjsip-ua-i386-win32-vc8-release:sip_inv.obj
 0002:00000438       ??_C@_0CA@NKIPLGEL@Error?5processing?5SDP?5offer?5in?5?$CF?$AA@ 00433438     pjsip-ua-i386-win32-vc8-release:sip_inv.obj
 0002:00000458       ??_C@_0BE@EPLINLEA@Got?5SDP?5offer?5in?5?$CFs?$AA@ 00433458     pjsip-ua-i386-win32-vc8-release:sip_inv.obj
 0002:0000046c       ??_C@_0CK@CNMHAOHC@Ignored?5SDP?5in?5?$CFs?3?5negotiator?5st@ 0043346c     pjsip-ua-i386-win32-vc8-release:sip_inv.obj
 0002:00000498       ??_C@_0CC@MICCHKNP@Error?5processing?5SDP?5answer?5in?5?$CF@ 00433498     pjsip-ua-i386-win32-vc8-release:sip_inv.obj
 0002:000004bc       ??_C@_0BF@NJIJAPGF@Got?5SDP?5answer?5in?5?$CFs?$AA@ 004334bc     pjsip-ua-i386-win32-vc8-release:sip_inv.obj
 0002:000004d4       ??_C@_0CO@JFCENHLK@SDP?5negotiation?5done?0?5message?5bo@ 004334d4     pjsip-ua-i386-win32-vc8-release:sip_inv.obj
 0002:00000504       ??_C@_0BI@BGFFELKE@Error?5parsing?5SDP?5in?5?$CFs?$AA@ 00433504     pjsip-ua-i386-win32-vc8-release:sip_inv.obj
 0002:00000520       ??_C@_0EA@DMMNFDGN@Error?5updating?5local?5offer?5for?5f@ 00433520     pjsip-ua-i386-win32-vc8-release:sip_inv.obj
 0002:00000560       ??_C@_0GE@BICJFDPJ@Received?5forked?5?$CFs?5response?5afte@ 00433560     pjsip-ua-i386-win32-vc8-release:sip_inv.obj
 0002:000005c4       ??_C@_05FPBGKCKL@final?$AA@ 004335c4     pjsip-ua-i386-win32-vc8-release:sip_inv.obj
 0002:000005cc       ??_C@_05MMFAAGKE@early?$AA@ 004335cc     pjsip-ua-i386-win32-vc8-release:sip_inv.obj
 0002:000005d4       ??_C@_0BC@DKICHHDF@Initial?5answer?5?$CFs?$AA@ 004335d4     pjsip-ua-i386-win32-vc8-release:sip_inv.obj
 0002:000005e8       ??_C@_0DO@HEALFLEC@Delaying?5CANCEL?5since?5no?5provisi@ 004335e8     pjsip-ua-i386-win32-vc8-release:sip_inv.obj
 0002:00000628       ??_C@_07PMMFKIFM@Contact?$AA@ 00433628     pjsip-ua-i386-win32-vc8-release:sip_inv.obj
 0002:00000630       ??_C@_0CK@INPGLEAA@Invalid?5SDP?5offer?1answer?5state?5f@ 00433630     pjsip-ua-i386-win32-vc8-release:sip_inv.obj
 0002:0000065c       ??_C@_0CL@IIMHLPDD@Delaying?5BYE?5request?5until?5ACK?5i@ 0043365c     pjsip-ua-i386-win32-vc8-release:sip_inv.obj
 0002:00000688       ??_C@_0L@BPIOADDE@Sending?5?$CFs?$AA@ 00433688     pjsip-ua-i386-win32-vc8-release:sip_inv.obj
 0002:00000698       ??_C@_0FH@KHNGIOMA@Secure?5dialog?5requires?5SIPS?5sche@ 00433698     pjsip-ua-i386-win32-vc8-release:sip_inv.obj
 0002:000006f0       ??_C@_0FL@EKGBDOF@Secure?5dialog?5requires?5SIPS?5sche@ 004336f0     pjsip-ua-i386-win32-vc8-release:sip_inv.obj
 0002:0000074c       ??_C@_0DA@CNKPLCJK@SDP?5offer?1answer?5incomplete?0?5end@ 0043374c     pjsip-ua-i386-win32-vc8-release:sip_inv.obj
 0002:0000077c       ??_C@_0BL@KNCDOFEH@Failed?5sending?5pending?5BYE?$AA@ 0043377c     pjsip-ua-i386-win32-vc8-release:sip_inv.obj
 0002:00000798       ??_C@_0BE@OEKCNCCE@Sending?5pending?5BYE?$AA@ 00433798     pjsip-ua-i386-win32-vc8-release:sip_inv.obj
 0002:000007ac       ??_C@_0BI@DIMJOHLK@?$DM?9error?3?5uri?5too?5long?9?$DO?$AA@ 004337ac     pjsip-ua-i386-win32-vc8-release:sip_inv.obj
 0002:000007c4       ??_C@_0DG@BKONCIHK@Ignored?5message?5body?5in?5?$CFs?5as?5no@ 004337c4     pjsip-ua-i386-win32-vc8-release:sip_inv.obj
 0002:000007fc       ??_C@_0CM@GCDEGPO@Received?5?$CFs?0?5notifying?5applicati@ 004337fc     pjsip-ua-i386-win32-vc8-release:sip_inv.obj
 0002:00000828       ??_C@_0BJ@DIELNPDA@Received?5?$CFs?0?5sending?5ACK?$AA@ 00433828     pjsip-ua-i386-win32-vc8-release:sip_inv.obj
 0002:00000844       ??_C@_0BH@GJLJMANH@SDP?5negotiation?5failed?$AA@ 00433844     pjsip-ua-i386-win32-vc8-release:sip_inv.obj
 0002:0000085c       ??_C@_0BM@KEOGGKDD@on_rx_reinvite?$CI?$CJ?5returns?5?$CFd?$AA@ 0043385c     pjsip-ua-i386-win32-vc8-release:sip_inv.obj
 0002:00000878       ??_C@_0CH@BBKLGGDE@Another?5INVITE?5transaction?5in?5pr@ 00433878     pjsip-ua-i386-win32-vc8-release:sip_inv.obj
 0002:000008a0       ??_C@_0L@KBAFDJEE@mod?9100rel?$AA@ 004338a0     pjsip-ua-i386-win32-vc8-release:sip_100rel.obj
 0002:000008ac       ??_C@_04JEDOGMAE@RAck?$AA@ 004338ac     pjsip-ua-i386-win32-vc8-release:sip_100rel.obj
 0002:000008b4       ??_C@_04NKIOHFHJ@RSeq?$AA@ 004338b4     pjsip-ua-i386-win32-vc8-release:sip_100rel.obj
 0002:000008bc       _pjsip_prack_method        004338bc     pjsip-ua-i386-win32-vc8-release:sip_100rel.obj
 0002:000008e0       ??_C@_0BH@ONPFCEOK@100rel?5module?5attached?$AA@ 004338e0     pjsip-ua-i386-win32-vc8-release:sip_100rel.obj
 0002:000008f8       ??_C@_0DL@FCLLNCLO@Ignoring?5100rel?5response?5with?5no@ 004338f8     pjsip-ua-i386-win32-vc8-release:sip_100rel.obj
 0002:00000934       ??_C@_0L@IBEMKGAL@?$CFu?5?$CFu?5?$CF?4?$CKs?$AA@ 00433934     pjsip-ua-i386-win32-vc8-release:sip_100rel.obj
 0002:00000940       ??_C@_0EC@BLMHGGJH@Ignoring?5100rel?5response?5because@ 00433940     pjsip-ua-i386-win32-vc8-release:sip_100rel.obj
 0002:00000984       ??_C@_0CN@FOEJAHIE@Ignoring?5100rel?5response?5with?5no@ 00433984     pjsip-ua-i386-win32-vc8-release:sip_100rel.obj
 0002:000009b4       ??_C@_0BM@HPALGIGM@Reliable?5response?5timed?5out?$AA@ 004339b4     pjsip-ua-i386-win32-vc8-release:sip_100rel.obj
 0002:000009d0       ??_C@_0BN@GEBHFEMC@Reliable?5response?5?$CFs?5created?$AA@ 004339d0     pjsip-ua-i386-win32-vc8-release:sip_100rel.obj
 0002:000009f0       ??_C@_0CL@JLPOAJFO@Reliable?5?$CFd?5response?5enqueued?5?$CI?$CF@ 004339f0     pjsip-ua-i386-win32-vc8-release:sip_100rel.obj
 0002:00000a1c       ??_C@_02GMHACPFF@?$CFu?$AA@ 00433a1c     pjsip-ua-i386-win32-vc8-release:sip_100rel.obj
 0002:00000a20       ??_C@_0CE@BEBCMEH@No?5SDP?5sent?5so?5far?0?5sending?52xx?5@ 00433a20     pjsip-ua-i386-win32-vc8-release:sip_100rel.obj
 0002:00000a44       ??_C@_0CG@JIMKEDOL@2xx?5response?5will?5be?5sent?5after?5@ 00433a44     pjsip-ua-i386-win32-vc8-release:sip_100rel.obj
 0002:00000a6c       ??_C@_0CE@PLNFEICH@PRACK?5ignored?5?9?5no?5pending?5respo@ 00433a6c     pjsip-ua-i386-win32-vc8-release:sip_100rel.obj
 0002:00000a90       ??_C@_0CM@DOMMHELC@Rx?5PRACK?5with?5no?5matching?5reliab@ 00433a90     pjsip-ua-i386-win32-vc8-release:sip_100rel.obj
 0002:00000abc       ??_C@_0P@BPOGJPKH@No?5RAck?5header?$AA@ 00433abc     pjsip-ua-i386-win32-vc8-release:sip_100rel.obj
 0002:00000acc       ??_C@_0BB@IEDINMFC@Unexpected?5PRACK?$AA@ 00433acc     pjsip-ua-i386-win32-vc8-release:sip_100rel.obj
 0002:00000ae0       ??_C@_03MPFNPLGP@uas?$AA@  00433ae0     pjsip-ua-i386-win32-vc8-release:sip_timer.obj
 0002:00000ae4       ??_C@_03IFJPOJDO@uac?$AA@  00433ae4     pjsip-ua-i386-win32-vc8-release:sip_timer.obj
 0002:00000ae8       ??_C@_09NOICKHFM@refresher?$AA@ 00433ae8     pjsip-ua-i386-win32-vc8-release:sip_timer.obj
 0002:00000af4       ??_C@_06PPBKPPMM@Min?9SE?$AA@ 00433af4     pjsip-ua-i386-win32-vc8-release:sip_timer.obj
 0002:00000afc       ??_C@_01FJMABOPO@x?$AA@    00433afc     pjsip-ua-i386-win32-vc8-release:sip_timer.obj
 0002:00000b00       ??_C@_0BA@HCNJNBAB@Session?9Expires?$AA@ 00433b00     pjsip-ua-i386-win32-vc8-release:sip_timer.obj
 0002:00000b48       _pjsip_update_method       00433b48     pjsip-ua-i386-win32-vc8-release:sip_timer.obj
 0002:00000b54       ??_C@_0DF@MFNPLMLE@Refreshing?5session?5after?5?$CFds?5?$CIex@ 00433b54     pjsip-ua-i386-win32-vc8-release:sip_timer.obj
 0002:00000b8c       ??_C@_0BK@JNGKHHHE@Error?5in?5?$CFs?5session?5timer?$AA@ 00433b8c     pjsip-ua-i386-win32-vc8-release:sip_timer.obj
 0002:00000ba8       ??_C@_0M@CIHJDPCM@terminating?$AA@ 00433ba8     pjsip-ua-i386-win32-vc8-release:sip_timer.obj
 0002:00000bb4       ??_C@_0L@BHFFIHLE@refreshing?$AA@ 00433bb4     pjsip-ua-i386-win32-vc8-release:sip_timer.obj
 0002:00000bc0       ??_C@_0FA@NNHOKPAC@No?5session?5?$CFs?5received?5after?5?$CFds@ 00433bc0     pjsip-ua-i386-win32-vc8-release:sip_timer.obj
 0002:00000c10       ??_C@_07HPCLKEG@refresh?$AA@ 00433c10     pjsip-ua-i386-win32-vc8-release:sip_timer.obj
 0002:00000c18       ??_C@_0BB@FFFNADMG@refresh?5response?$AA@ 00433c18     pjsip-ua-i386-win32-vc8-release:sip_timer.obj
 0002:00000c30       ??_C@_0EI@EKPLKHLI@Receive?5error?5?$CFd?5for?5refresh?5req@ 00433c30     pjsip-ua-i386-win32-vc8-release:sip_timer.obj
 0002:00000c78       ??_C@_0IG@FLJLCDDH@Peer?5responds?5with?5bad?5Session?9E@ 00433c78     pjsip-ua-i386-win32-vc8-release:sip_timer.obj
 0002:00000d00       ??_C@_0EK@JCMLCMLM@Received?5422?5?$CISession?5Interval?5T@ 00433d00     pjsip-ua-i386-win32-vc8-release:sip_timer.obj
 0002:00000d4c       ??_C@_0BD@CLDAAALK@TLS?5IPv6?5transport?$AA@ 00433d4c     pjsip-core-i386-win32-vc8-release:sip_transport.obj
 0002:00000d60       ??_C@_0BD@IONFPPFG@TCP?5IPv6?5transport?$AA@ 00433d60     pjsip-core-i386-win32-vc8-release:sip_transport.obj
 0002:00000d74       ??_C@_0BD@LIBJHFGK@UDP?5IPv6?5transport?$AA@ 00433d74     pjsip-core-i386-win32-vc8-release:sip_transport.obj
 0002:00000d88       ??_C@_0BM@JFHDLEFO@Loopback?5datagram?5transport?$AA@ 00433d88     pjsip-core-i386-win32-vc8-release:sip_transport.obj
 0002:00000da4       ??_C@_0L@PGGNCDOP@LOOP?9DGRAM?$AA@ 00433da4     pjsip-core-i386-win32-vc8-release:sip_transport.obj
 0002:00000db0       ??_C@_0BD@IJLEDLFM@Loopback?5transport?$AA@ 00433db0     pjsip-core-i386-win32-vc8-release:sip_transport.obj
 0002:00000dc4       ??_C@_04KGNEGCGI@LOOP?$AA@ 00433dc4     pjsip-core-i386-win32-vc8-release:sip_transport.obj
 0002:00000dcc       ??_C@_0P@BEPMAJFA@SCTP?5transport?$AA@ 00433dcc     pjsip-core-i386-win32-vc8-release:sip_transport.obj
 0002:00000ddc       ??_C@_04BOMBJBBC@SCTP?$AA@ 00433ddc     pjsip-core-i386-win32-vc8-release:sip_transport.obj
 0002:00000de4       ??_C@_0O@BHJFMMNA@TLS?5transport?$AA@ 00433de4     pjsip-core-i386-win32-vc8-release:sip_transport.obj
 0002:00000df4       ??_C@_03HCMCMCCF@TLS?$AA@  00433df4     pjsip-core-i386-win32-vc8-release:sip_transport.obj
 0002:00000df8       ??_C@_0O@EHHLMLBF@TCP?5transport?$AA@ 00433df8     pjsip-core-i386-win32-vc8-release:sip_transport.obj
 0002:00000e08       ??_C@_03FCLDNGNL@TCP?$AA@  00433e08     pjsip-core-i386-win32-vc8-release:sip_transport.obj
 0002:00000e0c       ??_C@_0O@KHAHCMDL@UDP?5transport?$AA@ 00433e0c     pjsip-core-i386-win32-vc8-release:sip_transport.obj
 0002:00000e1c       ??_C@_03OPEAKHDL@UDP?$AA@  00433e1c     pjsip-core-i386-win32-vc8-release:sip_transport.obj
 0002:00000e20       ??_C@_0M@NNPCGPMF@Unspecified?$AA@ 00433e20     pjsip-core-i386-win32-vc8-release:sip_transport.obj
 0002:00000e2c       ??_C@_0O@EMLDOJH@mod?9msg?9print?$AA@ 00433e2c     pjsip-core-i386-win32-vc8-release:sip_transport.obj
 0002:00000e3c       ??_C@_06HHKALCGB@tdta?$CFp?$AA@ 00433e3c     pjsip-core-i386-win32-vc8-release:sip_transport.obj
 0002:00000e44       ??_C@_0CC@DIPPPFIF@Response?5msg?5?$CFd?1?$CF?4?$CKs?1cseq?$DN?$CFd?5?$CI?$CFs@ 00433e44     pjsip-core-i386-win32-vc8-release:sip_transport.obj
 0002:00000e68       ??_C@_0BO@FBJFIDDA@Request?5msg?5?$CF?4?$CKs?1cseq?$DN?$CFd?5?$CI?$CFs?$CJ?$AA@ 00433e68     pjsip-core-i386-win32-vc8-release:sip_transport.obj
 0002:00000e88       ??_C@_0M@JCCICOOO@INVALID?5MSG?$AA@ 00433e88     pjsip-core-i386-win32-vc8-release:sip_transport.obj
 0002:00000e94       ??_C@_02BBAHNLBA@?$CFp?$AA@ 00433e94     pjsip-core-i386-win32-vc8-release:sip_transport.obj
 0002:00000e98       ??_C@_05MIOBCJBH@rdata?$AA@ 00433e98     pjsip-core-i386-win32-vc8-release:sip_transport.obj
 0002:00000ea0       ??_C@_0BA@BCOMPIDA@sip_transport?4c?$AA@ 00433ea0     pjsip-core-i386-win32-vc8-release:sip_transport.obj
 0002:00000eb0       ??_C@_0EM@JMILNFHN@Error?5processing?5?$CFd?5bytes?5packet@ 00433eb0     pjsip-core-i386-win32-vc8-release:sip_transport.obj
 0002:00000efc       ??_C@_0DM@LJBJFPEI@?3?5?$CFs?5exception?5when?5parsing?5?8?$CF?4?$CK@ 00433efc     pjsip-core-i386-win32-vc8-release:sip_transport.obj
 0002:00000f38       ??_C@_0DG@FPJFHIHG@Specified?5factory?5for?5creating?5t@ 00433f38     pjsip-core-i386-win32-vc8-release:sip_transport.obj
 0002:00000f6e       ??_C@_00CNPNBAHC@?$AA@     00433f6e     pjsip-core-i386-win32-vc8-release:sip_transport.obj
 0002:00000f70       ??_C@_0BF@FNAOFPOF@Destroying?5txdata?5?$CFs?$AA@ 00433f70     pjsip-core-i386-win32-vc8-release:sip_transport.obj
 0002:00000f88       ??_C@_05KBHICJDA@rtd?$CFp?$AA@ 00433f88     pjsip-core-i386-win32-vc8-release:sip_transport.obj
 0002:00000f90       ??_C@_0CG@GHPNJCCG@Unable?5to?5send?5?$CFs?3?5message?5is?5pe@ 00433f90     pjsip-core-i386-win32-vc8-release:sip_transport.obj
 0002:00000fb8       ??_C@_0BL@FCLJOKON@Transport?5manager?5created?4?$AA@ 00433fb8     pjsip-core-i386-win32-vc8-release:sip_transport.obj
 0002:00000fd4       ??_C@_06DFEDPGIK@tmgr?$CFp?$AA@ 00433fd4     pjsip-core-i386-win32-vc8-release:sip_transport.obj
 0002:00000fdc       ??_C@_0CI@HJKHOKAG@Cleaned?5up?5dangling?5transmit?5buf@ 00433fdc     pjsip-core-i386-win32-vc8-release:sip_transport.obj
 0002:00001004       ??_C@_0BN@ICLNKKAJ@Destroying?5transport?5manager?$AA@ 00434004     pjsip-core-i386-win32-vc8-release:sip_transport.obj
 0002:00001024       ??_C@_0P@EGLGAFCL@sip_endpoint?4c?$AA@ 00434024     pjsip-core-i386-win32-vc8-release:sip_endpoint.obj
 0002:00001034       ??_C@_0BJ@MGECBGBK@Module?5?$CC?$CF?4?$CKs?$CC?5registered?$AA@ 00434034     pjsip-core-i386-win32-vc8-release:sip_endpoint.obj
 0002:00001050       ??_C@_0BL@HDLPHBNM@Module?5?$CC?$CF?4?$CKs?$CC?5unregistered?$AA@ 00434050     pjsip-core-i386-win32-vc8-release:sip_endpoint.obj
 0002:0000106c       ??_C@_0BG@NIAFLHGE@Endpoint?5?$CFp?5destroyed?$AA@ 0043406c     pjsip-core-i386-win32-vc8-release:sip_endpoint.obj
 0002:00001084       ??_C@_0BP@COABEKEP@Destroying?5endpoing?5instance?4?4?$AA@ 00434084     pjsip-core-i386-win32-vc8-release:sip_endpoint.obj
 0002:000010a4       ??_C@_0BK@KKFMILKM@Unable?5to?5create?5pool?5?$CFs?$CB?$AA@ 004340a4     pjsip-core-i386-win32-vc8-release:sip_endpoint.obj
 0002:000010c0       ??_C@_0CC@POJNFGFL@Distributing?5rdata?5to?5modules?3?5?$CF@ 004340c0     pjsip-core-i386-win32-vc8-release:sip_endpoint.obj
 0002:000010e4       ??_C@_0DD@CJCKLIHE@?$CFs?5from?5?$CFs?3?$CFd?5was?5dropped?1unhand@ 004340e4     pjsip-core-i386-win32-vc8-release:sip_endpoint.obj
 0002:00001118       ??_C@_0CA@HOLDFAO@Processing?5incoming?5message?3?5?$CFs?$AA@ 00434118     pjsip-core-i386-win32-vc8-release:sip_endpoint.obj
 0002:00001138       ??_C@_0EM@MDGMOKGH@Error?5processing?5packet?5from?5?$CFs?3@ 00434138     pjsip-core-i386-win32-vc8-release:sip_endpoint.obj
 0002:00001184       ??_C@_05PHECJIMD@?5CSeq?$AA@ 00434184     pjsip-core-i386-win32-vc8-release:sip_endpoint.obj
 0002:0000118c       ??_C@_04CNJKNNNB@?5Via?$AA@ 0043418c     pjsip-core-i386-win32-vc8-release:sip_endpoint.obj
 0002:00001194       ??_C@_03PHFJHONJ@?5To?$AA@ 00434194     pjsip-core-i386-win32-vc8-release:sip_endpoint.obj
 0002:00001198       ??_C@_05MMMMAHGD@?5From?$AA@ 00434198     pjsip-core-i386-win32-vc8-release:sip_endpoint.obj
 0002:000011a0       ??_C@_07IKPMLMAJ@Call?9ID?$AA@ 004341a0     pjsip-core-i386-win32-vc8-release:sip_endpoint.obj
 0002:000011a8       ??_C@_0M@HFADNKMO@?3?5?$FLerr?5?$CFd?$FN?5?$AA@ 004341a8     pjsip-core-i386-win32-vc8-release:sip_endpoint.obj
 0002:000011b4       ??_C@_0CK@DNCAODEI@Module?5?$CC?$CF?4?$CKs?$CC?5can?5not?5be?5unregis@ 004341b4     pjsip-core-i386-win32-vc8-release:sip_endpoint.obj
 0002:000011e0       ??_C@_0BI@MLLMLNGM@Error?5creating?5endpoint?$AA@ 004341e0     pjsip-core-i386-win32-vc8-release:sip_endpoint.obj
 0002:000011f8       ??_C@_0CB@HGCDKNNC@Error?5creating?5resolver?5instance@ 004341f8     pjsip-core-i386-win32-vc8-release:sip_endpoint.obj
 0002:0000121c       ??_C@_06CEEOCEHG@edpt?$CFp?$AA@ 0043421c     pjsip-core-i386-win32-vc8-release:sip_endpoint.obj
 0002:00001224       ??_C@_05BKDCOKEM@ept?$CFp?$AA@ 00434224     pjsip-core-i386-win32-vc8-release:sip_endpoint.obj
 0002:0000122c       ??_C@_06NKPEEELK@pept?$CFp?$AA@ 0043422c     pjsip-core-i386-win32-vc8-release:sip_endpoint.obj
 0002:00001234       ??_C@_0BO@COOMMINE@Creating?5endpoint?5instance?4?4?4?$AA@ 00434234     pjsip-core-i386-win32-vc8-release:sip_endpoint.obj
 0002:00001254       ??_C@_0BA@MKEDBJEA@_Unknown?9Header?$AA@ 00434254     pjsip-core-i386-win32-vc8-release:sip_msg.obj
 0002:00001264       ??_C@_0BB@KEDJJIFI@WWW?9Authenticate?$AA@ 00434264     pjsip-core-i386-win32-vc8-release:sip_msg.obj
 0002:00001278       ??_C@_07KGMMFLDN@Warning?$AA@ 00434278     pjsip-core-i386-win32-vc8-release:sip_msg.obj
 0002:00001280       ??_C@_01MHEDDDHA@v?$AA@    00434280     pjsip-core-i386-win32-vc8-release:sip_msg.obj
 0002:00001284       ??_C@_03LDNNKNE@Via?$AA@   00434284     pjsip-core-i386-win32-vc8-release:sip_msg.obj
 0002:00001288       ??_C@_0L@DMPACEMJ@User?9Agent?$AA@ 00434288     pjsip-core-i386-win32-vc8-release:sip_msg.obj
 0002:00001294       ??_C@_0M@BEECMOIL@Unsupported?$AA@ 00434294     pjsip-core-i386-win32-vc8-release:sip_msg.obj
 0002:000012a0       ??_C@_01PFHFFBPC@t?$AA@    004342a0     pjsip-core-i386-win32-vc8-release:sip_msg.obj
 0002:000012a4       ??_C@_02IJGONHOJ@To?$AA@   004342a4     pjsip-core-i386-win32-vc8-release:sip_msg.obj
 0002:000012a8       ??_C@_09KDGENIOP@Timestamp?$AA@ 004342a8     pjsip-core-i386-win32-vc8-release:sip_msg.obj
 0002:000012b4       ??_C@_01DICPFPGM@k?$AA@    004342b4     pjsip-core-i386-win32-vc8-release:sip_msg.obj
 0002:000012b8       ??_C@_09GFDKPDGA@Supported?$AA@ 004342b8     pjsip-core-i386-win32-vc8-release:sip_msg.obj
 0002:000012c4       ??_C@_01LKDEMHDF@s?$AA@    004342c4     pjsip-core-i386-win32-vc8-release:sip_msg.obj
 0002:000012c8       ??_C@_07GEKACEDI@Subject?$AA@ 004342c8     pjsip-core-i386-win32-vc8-release:sip_msg.obj
 0002:000012d0       ??_C@_06LGMEBDBC@Server?$AA@ 004342d0     pjsip-core-i386-win32-vc8-release:sip_msg.obj
 0002:000012d8       ??_C@_05DIKBIPM@Route?$AA@ 004342d8     pjsip-core-i386-win32-vc8-release:sip_msg.obj
 0002:000012e0       ??_C@_0M@CMFFKFHP@Retry?9After?$AA@ 004342e0     pjsip-core-i386-win32-vc8-release:sip_msg.obj
 0002:000012ec       ??_C@_07KMMNJNOB@Require?$AA@ 004342ec     pjsip-core-i386-win32-vc8-release:sip_msg.obj
 0002:000012f4       ??_C@_08GBENDHCN@Reply?9To?$AA@ 004342f4     pjsip-core-i386-win32-vc8-release:sip_msg.obj
 0002:00001300       ??_C@_0N@KJFPNEHF@Record?9Route?$AA@ 00434300     pjsip-core-i386-win32-vc8-release:sip_msg.obj
 0002:00001310       ??_C@_0O@ICDCLCHE@Proxy?9Require?$AA@ 00434310     pjsip-core-i386-win32-vc8-release:sip_msg.obj
 0002:00001320       ??_C@_0BE@DCLKKIPG@Proxy?9Authorization?$AA@ 00434320     pjsip-core-i386-win32-vc8-release:sip_msg.obj
 0002:00001334       ??_C@_0BD@GKJFGNG@Proxy?9Authenticate?$AA@ 00434334     pjsip-core-i386-win32-vc8-release:sip_msg.obj
 0002:00001348       ??_C@_08KGEIBGG@Priority?$AA@ 00434348     pjsip-core-i386-win32-vc8-release:sip_msg.obj
 0002:00001354       ??_C@_0N@MHPBIIPD@Organization?$AA@ 00434354     pjsip-core-i386-win32-vc8-release:sip_msg.obj
 0002:00001364       ??_C@_0M@BHCNHHNF@Min?9Expires?$AA@ 00434364     pjsip-core-i386-win32-vc8-release:sip_msg.obj
 0002:00001370       ??_C@_0N@PNJFOFFK@MIME?9Version?$AA@ 00434370     pjsip-core-i386-win32-vc8-release:sip_msg.obj
 0002:00001380       ??_C@_0N@KAKEBINL@Max?9Forwards?$AA@ 00434380     pjsip-core-i386-win32-vc8-release:sip_msg.obj
 0002:00001390       ??_C@_0M@OJFKFNND@In?9Reply?9To?$AA@ 00434390     pjsip-core-i386-win32-vc8-release:sip_msg.obj
 0002:0000139c       ??_C@_01INIBCBCB@f?$AA@    0043439c     pjsip-core-i386-win32-vc8-release:sip_msg.obj
 0002:000013a0       ??_C@_04LMIAFEOL@From?$AA@ 004343a0     pjsip-core-i386-win32-vc8-release:sip_msg.obj
 0002:000013a8       ??_C@_07DABPCBEH@Expires?$AA@ 004343a8     pjsip-core-i386-win32-vc8-release:sip_msg.obj
 0002:000013b0       ??_C@_0L@PGKFFKEH@Error?9Info?$AA@ 004343b0     pjsip-core-i386-win32-vc8-release:sip_msg.obj
 0002:000013bc       ??_C@_04FMEGDJGD@Date?$AA@ 004343bc     pjsip-core-i386-win32-vc8-release:sip_msg.obj
 0002:000013c4       ??_C@_04IHAOMLEL@CSeq?$AA@ 004343c4     pjsip-core-i386-win32-vc8-release:sip_msg.obj
 0002:000013cc       ??_C@_01PAPGNFGE@c?$AA@    004343cc     pjsip-core-i386-win32-vc8-release:sip_msg.obj
 0002:000013d0       ??_C@_0N@LAFFMKKA@Content?9Type?$AA@ 004343d0     pjsip-core-i386-win32-vc8-release:sip_msg.obj
 0002:000013e0       ??_C@_01HHGOMJKL@l?$AA@    004343e0     pjsip-core-i386-win32-vc8-release:sip_msg.obj
 0002:000013e4       ??_C@_0P@HOJGPHBA@Content?9Length?$AA@ 004343e4     pjsip-core-i386-win32-vc8-release:sip_msg.obj
 0002:000013f4       ??_C@_0BB@PICLCBPP@Content?9Language?$AA@ 004343f4     pjsip-core-i386-win32-vc8-release:sip_msg.obj
 0002:00001408       ??_C@_01KGKMHCOC@e?$AA@    00434408     pjsip-core-i386-win32-vc8-release:sip_msg.obj
 0002:0000140c       ??_C@_0BB@KFPPKJHF@Content?9Encoding?$AA@ 0043440c     pjsip-core-i386-win32-vc8-release:sip_msg.obj
 0002:00001420       ??_C@_0BE@LMOOGHBG@Content?9Disposition?$AA@ 00434420     pjsip-core-i386-win32-vc8-release:sip_msg.obj
 0002:00001434       ??_C@_01GOHFPIOK@m?$AA@    00434434     pjsip-core-i386-win32-vc8-release:sip_msg.obj
 0002:00001438       ??_C@_09HCKFEBLC@Call?9Info?$AA@ 00434438     pjsip-core-i386-win32-vc8-release:sip_msg.obj
 0002:00001444       ??_C@_01KBJDNOO@i?$AA@     00434444     pjsip-core-i386-win32-vc8-release:sip_msg.obj
 0002:00001448       ??_C@_0O@NAFGPKMI@Authorization?$AA@ 00434448     pjsip-core-i386-win32-vc8-release:sip_msg.obj
 0002:00001458       ??_C@_0BE@KPJFGFDH@Authentication?9Info?$AA@ 00434458     pjsip-core-i386-win32-vc8-release:sip_msg.obj
 0002:0000146c       ??_C@_05IEPODGEO@Allow?$AA@ 0043446c     pjsip-core-i386-win32-vc8-release:sip_msg.obj
 0002:00001474       ??_C@_0L@DDNEKGOG@Alert?9Info?$AA@ 00434474     pjsip-core-i386-win32-vc8-release:sip_msg.obj
 0002:00001480       ??_C@_0BA@POEGPCPD@Accept?9Language?$AA@ 00434480     pjsip-core-i386-win32-vc8-release:sip_msg.obj
 0002:00001490       ??_C@_0BA@KDJCHKHJ@Accept?9Encoding?$AA@ 00434490     pjsip-core-i386-win32-vc8-release:sip_msg.obj
 0002:000014a0       ??_C@_06MDEHPNLG@Accept?$AA@ 004344a0     pjsip-core-i386-win32-vc8-release:sip_msg.obj
 0002:000014a8       ??_C@_07KDKMIPIP@OPTIONS?$AA@ 004344a8     pjsip-core-i386-win32-vc8-release:sip_msg.obj
 0002:000014b0       ??_C@_08EINEADGI@REGISTER?$AA@ 004344b0     pjsip-core-i386-win32-vc8-release:sip_msg.obj
 0002:000014c0       _pjsip_invite_method       004344c0     pjsip-core-i386-win32-vc8-release:sip_msg.obj
 0002:000014cc       _pjsip_cancel_method       004344cc     pjsip-core-i386-win32-vc8-release:sip_msg.obj
 0002:000014d8       _pjsip_ack_method          004344d8     pjsip-core-i386-win32-vc8-release:sip_msg.obj
 0002:000014e4       _pjsip_bye_method          004344e4     pjsip-core-i386-win32-vc8-release:sip_msg.obj
 0002:000014f0       _pjsip_register_method     004344f0     pjsip-core-i386-win32-vc8-release:sip_msg.obj
 0002:000014fc       _pjsip_options_method      004344fc     pjsip-core-i386-win32-vc8-release:sip_msg.obj
 0002:00001508       _pjsip_hdr_names           00434508     pjsip-core-i386-win32-vc8-release:sip_msg.obj
 0002:00001724       ??_C@_0CM@KOHFAKJI@Error?5sending?5message?5to?5destina@ 00434724     pjsip-core-i386-win32-vc8-release:sip_msg.obj
 0002:00001750       ??_C@_0CF@KIECMFPG@Unable?5to?5resolve?5destination?5se@ 00434750     pjsip-core-i386-win32-vc8-release:sip_msg.obj
 0002:00001778       ??_C@_0CE@LJDLADFN@No?5response?5from?5destination?5ser@ 00434778     pjsip-core-i386-win32-vc8-release:sip_msg.obj
 0002:0000179c       ??_C@_0BI@JILKKJAA@Does?5Not?5Exist?5Anywhere?$AA@ 0043479c     pjsip-core-i386-win32-vc8-release:sip_msg.obj
 0002:000017b4       ??_C@_07CAMLKJDK@Decline?$AA@ 004347b4     pjsip-core-i386-win32-vc8-release:sip_msg.obj
 0002:000017bc       ??_C@_0BA@BNEEJKIK@Busy?5Everywhere?$AA@ 004347bc     pjsip-core-i386-win32-vc8-release:sip_msg.obj
 0002:000017cc       ??_C@_0BF@PJIFKKPF@Precondition?5Failure?$AA@ 004347cc     pjsip-core-i386-win32-vc8-release:sip_msg.obj
 0002:000017e4       ??_C@_0BC@FOIGPIGF@Message?5Too?5Large?$AA@ 004347e4     pjsip-core-i386-win32-vc8-release:sip_msg.obj
 0002:000017f8       ??_C@_0BG@DGJHJFEF@Version?5Not?5Supported?$AA@ 004347f8     pjsip-core-i386-win32-vc8-release:sip_msg.obj
 0002:00001810       ??_C@_0P@KPHBHCBP@Server?5Timeout?$AA@ 00434810     pjsip-core-i386-win32-vc8-release:sip_msg.obj
 0002:00001820       ??_C@_0BE@NGHLFKBN@Service?5Unavailable?$AA@ 00434820     pjsip-core-i386-win32-vc8-release:sip_msg.obj
 0002:00001834       ??_C@_0M@BNCNLPGM@Bad?5Gateway?$AA@ 00434834     pjsip-core-i386-win32-vc8-release:sip_msg.obj
 0002:00001840       ??_C@_0BA@JGKGKAME@Not?5Implemented?$AA@ 00434840     pjsip-core-i386-win32-vc8-release:sip_msg.obj
 0002:00001850       ??_C@_0BG@NJGANGCC@Internal?5Server?5Error?$AA@ 00434850     pjsip-core-i386-win32-vc8-release:sip_msg.obj
 0002:00001868       ??_C@_0P@EIPIHDNL@Undecipherable?$AA@ 00434868     pjsip-core-i386-win32-vc8-release:sip_msg.obj
 0002:00001878       ??_C@_0BA@KLOCDLCK@Request?5Pending?$AA@ 00434878     pjsip-core-i386-win32-vc8-release:sip_msg.obj
 0002:00001888       ??_C@_0BA@DKJEBJFB@Request?5Updated?$AA@ 00434888     pjsip-core-i386-win32-vc8-release:sip_msg.obj
 0002:00001898       ??_C@_09HKNLJBHH@Bad?5Event?$AA@ 00434898     pjsip-core-i386-win32-vc8-release:sip_msg.obj
 0002:000018a4       ??_C@_0BE@HMIMPLAH@Not?5Acceptable?5Here?$AA@ 004348a4     pjsip-core-i386-win32-vc8-release:sip_msg.obj
 0002:000018b8       ??_C@_0BD@IGJOBDDO@Request?5Terminated?$AA@ 004348b8     pjsip-core-i386-win32-vc8-release:sip_msg.obj
 0002:000018cc       ??_C@_09ELAJPHFG@Busy?5Here?$AA@ 004348cc     pjsip-core-i386-win32-vc8-release:sip_msg.obj
 0002:000018d8       ??_C@_09FNGPAEJC@Ambiguous?$AA@ 004348d8     pjsip-core-i386-win32-vc8-release:sip_msg.obj
 0002:000018e4       ??_C@_0BD@HOIPLGB@Address?5Incomplete?$AA@ 004348e4     pjsip-core-i386-win32-vc8-release:sip_msg.obj
 0002:000018f8       ??_C@_0O@CFHODMHD@Too?5Many?5Hops?$AA@ 004348f8     pjsip-core-i386-win32-vc8-release:sip_msg.obj
 0002:00001908       ??_C@_0O@KJBLEGOO@Loop?5Detected?$AA@ 00434908     pjsip-core-i386-win32-vc8-release:sip_msg.obj
 0002:00001918       ??_C@_0CA@DPKMEAMP@Call?1Transaction?5Does?5Not?5Exist?$AA@ 00434918     pjsip-core-i386-win32-vc8-release:sip_msg.obj
 0002:00001938       ??_C@_0BI@JBJKOKGE@Temporarily?5Unavailable?$AA@ 00434938     pjsip-core-i386-win32-vc8-release:sip_msg.obj
 0002:00001950       ??_C@_0BD@NHGMJMLN@Interval?5Too?5Brief?$AA@ 00434950     pjsip-core-i386-win32-vc8-release:sip_msg.obj
 0002:00001964       ??_C@_0BI@DEDCGMIH@Session?5Timer?5Too?5Small?$AA@ 00434964     pjsip-core-i386-win32-vc8-release:sip_msg.obj
 0002:0000197c       ??_C@_0BD@LEDCNIMD@Extension?5Required?$AA@ 0043497c     pjsip-core-i386-win32-vc8-release:sip_msg.obj
 0002:00001990       ??_C@_0O@EABFLJJG@Bad?5Extension?$AA@ 00434990     pjsip-core-i386-win32-vc8-release:sip_msg.obj
 0002:000019a0       ??_C@_0BH@HMDPMBIK@Unsupported?5URI?5Scheme?$AA@ 004349a0     pjsip-core-i386-win32-vc8-release:sip_msg.obj
 0002:000019b8       ??_C@_0BH@HLJJIAEN@Unsupported?5Media?5Type?$AA@ 004349b8     pjsip-core-i386-win32-vc8-release:sip_msg.obj
 0002:000019d0       ??_C@_0BF@LPICFNOC@Request?5URI?5Too?5Long?$AA@ 004349d0     pjsip-core-i386-win32-vc8-release:sip_msg.obj
 0002:000019e8       ??_C@_0BJ@MMEIEOIG@Request?5Entity?5Too?5Large?$AA@ 004349e8     pjsip-core-i386-win32-vc8-release:sip_msg.obj
 0002:00001a04       ??_C@_04OKIIBCCG@Gone?$AA@ 00434a04     pjsip-core-i386-win32-vc8-release:sip_msg.obj
 0002:00001a0c       ??_C@_0BA@HALFGGF@Request?5Timeout?$AA@ 00434a0c     pjsip-core-i386-win32-vc8-release:sip_msg.obj
 0002:00001a1c       ??_C@_0BO@ONPAAOGI@Proxy?5Authentication?5Required?$AA@ 00434a1c     pjsip-core-i386-win32-vc8-release:sip_msg.obj
 0002:00001a3c       ??_C@_0P@HHIDFAOI@Not?5Acceptable?$AA@ 00434a3c     pjsip-core-i386-win32-vc8-release:sip_msg.obj
 0002:00001a4c       ??_C@_0BD@CCIPIALO@Method?5Not?5Allowed?$AA@ 00434a4c     pjsip-core-i386-win32-vc8-release:sip_msg.obj
 0002:00001a60       ??_C@_09CFCBFJND@Not?5Found?$AA@ 00434a60     pjsip-core-i386-win32-vc8-release:sip_msg.obj
 0002:00001a6c       ??_C@_09LMDIMFJD@Forbidden?$AA@ 00434a6c     pjsip-core-i386-win32-vc8-release:sip_msg.obj
 0002:00001a78       ??_C@_0BB@LMPIHCBH@Payment?5Required?$AA@ 00434a78     pjsip-core-i386-win32-vc8-release:sip_msg.obj
 0002:00001a8c       ??_C@_0N@OOAPMOJA@Unauthorized?$AA@ 00434a8c     pjsip-core-i386-win32-vc8-release:sip_msg.obj
 0002:00001a9c       ??_C@_0M@LNAIDEEG@Bad?5Request?$AA@ 00434a9c     pjsip-core-i386-win32-vc8-release:sip_msg.obj
 0002:00001aa8       ??_C@_0BE@MCFGMBHK@Alternative?5Service?$AA@ 00434aa8     pjsip-core-i386-win32-vc8-release:sip_msg.obj
 0002:00001abc       ??_C@_09JFBGBFIM@Use?5Proxy?$AA@ 00434abc     pjsip-core-i386-win32-vc8-release:sip_msg.obj
 0002:00001ac8       ??_C@_0BC@LODIMCJL@Moved?5Temporarily?$AA@ 00434ac8     pjsip-core-i386-win32-vc8-release:sip_msg.obj
 0002:00001adc       ??_C@_0BC@BPBCNFPI@Moved?5Permanently?$AA@ 00434adc     pjsip-core-i386-win32-vc8-release:sip_msg.obj
 0002:00001af0       ??_C@_0BB@HLFEHKPE@Multiple?5Choices?$AA@ 00434af0     pjsip-core-i386-win32-vc8-release:sip_msg.obj
 0002:00001b04       ??_C@_08DOBOODLA@Accepted?$AA@ 00434b04     pjsip-core-i386-win32-vc8-release:sip_msg.obj
 0002:00001b10       ??_C@_02GIPFHKNO@OK?$AA@   00434b10     pjsip-core-i386-win32-vc8-release:sip_msg.obj
 0002:00001b14       ??_C@_0BB@FKJCNOGD@Session?5Progress?$AA@ 00434b14     pjsip-core-i386-win32-vc8-release:sip_msg.obj
 0002:00001b28       ??_C@_06POGAFBAL@Queued?$AA@ 00434b28     pjsip-core-i386-win32-vc8-release:sip_msg.obj
 0002:00001b30       ??_C@_0BI@HBFDMPGA@Call?5Is?5Being?5Forwarded?$AA@ 00434b30     pjsip-core-i386-win32-vc8-release:sip_msg.obj
 0002:00001b48       ??_C@_07KEMHLLKP@Ringing?$AA@ 00434b48     pjsip-core-i386-win32-vc8-release:sip_msg.obj
 0002:00001b50       ??_C@_06CJPKGAJC@Trying?$AA@ 00434b50     pjsip-core-i386-win32-vc8-release:sip_msg.obj
 0002:00001b58       ??_C@_0BH@JEAOBKFE@Default?5status?5message?$AA@ 00434b58     pjsip-core-i386-win32-vc8-release:sip_msg.obj
 0002:00001b70       ??_C@_02KEGNLNML@?0?5?$AA@ 00434b70     pjsip-core-i386-win32-vc8-release:sip_msg.obj
 0002:00001b74       ??_C@_09JFABAEBI@?$DLexpires?$DN?$AA@ 00434b74     pjsip-core-i386-win32-vc8-release:sip_msg.obj
 0002:00001b80       ??_C@_03MGEKBFJK@?$DLq?$DN?$AA@ 00434b80     pjsip-core-i386-win32-vc8-release:sip_msg.obj
 0002:00001b84       ??_C@_05IIDIOKEA@?$DLtag?$DN?$AA@ 00434b84     pjsip-core-i386-win32-vc8-release:sip_msg.obj
 0002:00001b8c       ??_C@_04IBOFHAPJ@hide?$AA@ 00434b8c     pjsip-core-i386-win32-vc8-release:sip_msg.obj
 0002:00001b94       ??_C@_08LMLOEMIC@?$DLbranch?$DN?$AA@ 00434b94     pjsip-core-i386-win32-vc8-release:sip_msg.obj
 0002:00001ba0       ??_C@_0L@IMDGLAJB@?$DLreceived?$DN?$AA@ 00434ba0     pjsip-core-i386-win32-vc8-release:sip_msg.obj
 0002:00001bac       ??_C@_07IONINLDO@?$DLmaddr?$DN?$AA@ 00434bac     pjsip-core-i386-win32-vc8-release:sip_msg.obj
 0002:00001bb4       ??_C@_06IKMHKLF@?$DLrport?$AA@ 00434bb4     pjsip-core-i386-win32-vc8-release:sip_msg.obj
 0002:00001bbc       ??_C@_05ODKKKCAM@?$DLttl?$DN?$AA@ 00434bbc     pjsip-core-i386-win32-vc8-release:sip_msg.obj
 0002:00001bc4       ??_C@_08BMKPPPGG@SIP?12?40?1?$AA@ 00434bc4     pjsip-core-i386-win32-vc8-release:sip_msg.obj
 0002:00001bd0       ??_C@_0P@DNLLBOJA@?$CFu?5?$CF?4?$CKs?5?$CC?$CF?4?$CKs?$CC?$AA@ 00434bd0     pjsip-core-i386-win32-vc8-release:sip_msg.obj
 0002:00001be0       ??_C@_03ELFADMOK@c?3?5?$AA@ 00434be0     pjsip-core-i386-win32-vc8-release:sip_msg.obj
 0002:00001be4       ??_C@_0P@GJMOGDPG@Content?9Type?3?5?$AA@ 00434be4     pjsip-core-i386-win32-vc8-release:sip_msg.obj
 0002:00001bf4       ??_C@_08JLDHODKJ@SIP?12?40?5?$AA@ 00434bf4     pjsip-core-i386-win32-vc8-release:sip_msg.obj
 0002:00001c00       ??_C@_0L@GLHKEHNL@?5SIP?12?40?$AN?6?$AA@ 00434c00     pjsip-core-i386-win32-vc8-release:sip_msg.obj
 0002:00001c0c       ??_C@_03BDDDCMLM@l?3?5?$AA@ 00434c0c     pjsip-core-i386-win32-vc8-release:sip_msg.obj
 0002:00001c10       ??_C@_0BB@NFGDEPJM@Content?9Length?3?5?$AA@ 00434c10     pjsip-core-i386-win32-vc8-release:sip_msg.obj
 0002:00001c2c       ??_C@_06LMEIPPMP@NOTIFY?$AA@ 00434c2c     pjsip-core-i386-win32-vc8-release:sip_dialog.obj
 0002:00001c34       ??_C@_05NPMLFHIF@REFER?$AA@ 00434c34     pjsip-core-i386-win32-vc8-release:sip_dialog.obj
 0002:00001c3c       ??_C@_09NMAFIJHB@SUBSCRIBE?$AA@ 00434c3c     pjsip-core-i386-win32-vc8-release:sip_dialog.obj
 0002:00001c48       ??_C@_05DGNCLLBL@dlg?$CFp?$AA@ 00434c48     pjsip-core-i386-win32-vc8-release:sip_dialog.obj
 0002:00001c50       ??_C@_0BD@BNDBFEIG@UAC?5dialog?5created?$AA@ 00434c50     pjsip-core-i386-win32-vc8-release:sip_dialog.obj
 0002:00001c64       ??_C@_0BB@KCGOEMJG@Dialog?5destroyed?$AA@ 00434c64     pjsip-core-i386-win32-vc8-release:sip_dialog.obj
 0002:00001c78       ??_C@_0CA@LCICJLMD@Session?5count?5dec?5to?5?$CFd?5by?5?$CF?4?$CKs?$AA@ 00434c78     pjsip-core-i386-win32-vc8-release:sip_dialog.obj
 0002:00001c98       ??_C@_0EF@MJEHGCLG@Module?5?$CF?4?$CKs?5already?5registered?5a@ 00434c98     pjsip-core-i386-win32-vc8-release:sip_dialog.obj
 0002:00001ce0       ??_C@_0CL@CCAGPMOP@Module?5?$CF?4?$CKs?5added?5as?5dialog?5usag@ 00434ce0     pjsip-core-i386-win32-vc8-release:sip_dialog.obj
 0002:00001d0c       ??_C@_0DI@GPBFFFGN@?$CFs?5was?5unhandled?5by?5dialog?5usage@ 00434d0c     pjsip-core-i386-win32-vc8-release:sip_dialog.obj
 0002:00001d44       ??_C@_0BL@HAJOOCAF@Unhandled?5by?5dialog?5usages?$AA@ 00434d44     pjsip-core-i386-win32-vc8-release:sip_dialog.obj
 0002:00001d60       ??_C@_0N@JADHANJP@Invalid?5CSeq?$AA@ 00434d60     pjsip-core-i386-win32-vc8-release:sip_dialog.obj
 0002:00001d70       ??_C@_0M@LHPMKMAE@Received?5?$CFs?$AA@ 00434d70     pjsip-core-i386-win32-vc8-release:sip_dialog.obj
 0002:00001d7c       ??_C@_0BB@EMPDFCEJ@Route?9set?5frozen?$AA@ 00434d7c     pjsip-core-i386-win32-vc8-release:sip_dialog.obj
 0002:00001d90       ??_C@_0BC@PCHBAKGP@Route?9set?5updated?$AA@ 00434d90     pjsip-core-i386-win32-vc8-release:sip_dialog.obj
 0002:00001da4       ??_C@_0CD@PIHECLAB@Transaction?5?$CFs?5state?5changed?5to?5@ 00434da4     pjsip-core-i386-win32-vc8-release:sip_dialog.obj
 0002:00001dc8       ??_C@_0CA@PEKDEADC@Session?5count?5inc?5to?5?$CFd?5by?5?$CF?4?$CKs?$AA@ 00434dc8     pjsip-core-i386-win32-vc8-release:sip_dialog.obj
 0002:00001de8       ??_C@_0BD@KGAMNPL@UAS?5dialog?5created?$AA@ 00434de8     pjsip-core-i386-win32-vc8-release:sip_dialog.obj
 0002:00001dfc       ??_C@_06GBGGOGBI@mod?9ua?$AA@ 00434dfc     pjsip-core-i386-win32-vc8-release:sip_ua_layer.obj
 0002:00001e04       ??_C@_05OKIAFJEO@?5ua?$CFp?$AA@ 00434e04     pjsip-core-i386-win32-vc8-release:sip_ua_layer.obj
 0002:00001e0c       ??_C@_04JKMMAKMG@ua?$CFp?$AA@ 00434e0c     pjsip-core-i386-win32-vc8-release:sip_ua_layer.obj
 0002:00001e14       ??_C@_0BN@IDPPCIAF@Unable?5to?5find?5dialog?5for?5?$CFs?$AA@ 00434e14     pjsip-core-i386-win32-vc8-release:sip_ua_layer.obj
 0002:00001e34       ??_C@_0DB@GAIHGHNL@Unable?5to?5find?5dialog?5for?5?$CFs?0?5an@ 00434e34     pjsip-core-i386-win32-vc8-release:sip_ua_layer.obj
 0002:00001e68       ??_C@_0P@JPGJPHAN@sip_ua_layer?4c?$AA@ 00434e68     pjsip-core-i386-win32-vc8-release:sip_ua_layer.obj
 0002:00001e78       ??_C@_0DE@OALAGOOG@Unable?5to?5find?5dialogset?5for?5?$CFs?0@ 00434e78     pjsip-core-i386-win32-vc8-release:sip_ua_layer.obj
 0002:00001eb0       ??_C@_0EC@DDCMMPIA@Received?5strayed?52xx?5response?5?$CIn@ 00434eb0     pjsip-core-i386-win32-vc8-release:sip_ua_layer.obj
 0002:00001ef8       ??_C@_0FB@ELNGKJEC@Unhandled?5forked?5?$CFs?5from?5?$CFs?3?$CFd?0?5@ 00434ef8     pjsip-core-i386-win32-vc8-release:sip_ua_layer.obj
 0002:00001f4c       ??_C@_0CK@KFGINAJM@Received?5forked?5?$CFs?5for?5existing?5@ 00434f4c     pjsip-core-i386-win32-vc8-release:sip_ua_layer.obj
 0002:00001f78       ??_C@_02DKCKIIND@?$CFs?$AA@ 00434f78     pjsip-core-i386-win32-vc8-release:sip_ua_layer.obj
 0002:00001f7c       ??_C@_05CGDPOPDB@plain?$AA@ 00434f7c     pjsip-core-i386-win32-vc8-release:sip_util.obj
 0002:00001f84       ??_C@_04CIMGMMMG@text?$AA@ 00434f84     pjsip-core-i386-win32-vc8-release:sip_util.obj
 0002:00001f8c       ??_C@_04OOEKJIOI@USER?$AA@ 00434f8c     pjsip-core-i386-win32-vc8-release:sip_util.obj
 0002:00001f94       ??_C@_09DGJBKMAD@TSX_STATE?$AA@ 00434f94     pjsip-core-i386-win32-vc8-release:sip_util.obj
 0002:00001fa0       ??_C@_0BA@DJFINPGH@TRANSPORT_ERROR?$AA@ 00434fa0     pjsip-core-i386-win32-vc8-release:sip_util.obj
 0002:00001fb0       ??_C@_06DEPLMDFE@RX_MSG?$AA@ 00434fb0     pjsip-core-i386-win32-vc8-release:sip_util.obj
 0002:00001fb8       ??_C@_06FHCLPGGO@TX_MSG?$AA@ 00434fb8     pjsip-core-i386-win32-vc8-release:sip_util.obj
 0002:00001fc0       ??_C@_05BLGDNOJI@TIMER?$AA@ 00434fc0     pjsip-core-i386-win32-vc8-release:sip_util.obj
 0002:00001fc8       ??_C@_0N@IDBMKGKC@UNIDENTIFIED?$AA@ 00434fc8     pjsip-core-i386-win32-vc8-release:sip_util.obj
 0002:00001fd8       ??_C@_08OKOOPKMJ@endpoint?$AA@ 00434fd8     pjsip-core-i386-win32-vc8-release:sip_util.obj
 0002:00001fe4       ??_C@_0M@PJOLBNIF@?$CFs?5created?4?$AA@ 00434fe4     pjsip-core-i386-win32-vc8-release:sip_util.obj
 0002:00001ff0       ??_C@_0L@IOBEOHFD@?$CFs?5created?$AA@ 00434ff0     pjsip-core-i386-win32-vc8-release:sip_util.obj
 0002:00002000       ??_C@_0ED@BNKEGDBC@Automatic?5switch?5to?5TLS?5transpor@ 00435000     pjsip-core-i386-win32-vc8-release:sip_util.obj
 0002:00002044       ??_C@_05NKHOCLEE@alias?$AA@ 00435044     pjsip-core-i386-win32-vc8-release:sip_util.obj
 0002:0000204c       ??_C@_07LDFFKCFH@z9hG4bK?$AA@ 0043504c     pjsip-core-i386-win32-vc8-release:sip_util.obj
 0002:00002054       ??_C@_0DF@HEHPNNHP@?$CFs?5exceeds?5UDP?5size?5threshold?5?$CI?$CF@ 00435054     pjsip-core-i386-win32-vc8-release:sip_util.obj
 0002:0000208c       ??_C@_0DO@JCGKHENM@?$CFs?3?5skipping?5target?5resolution?5b@ 0043508c     pjsip-core-i386-win32-vc8-release:sip_util.obj
 0002:000020cc       ??_C@_0BC@OBBFELDN@mod?9stateful?9util?$AA@ 004350cc     pjsip-core-i386-win32-vc8-release:sip_util_statefull.obj
 0002:000020e0       ??_C@_03MCKGDGBD@UAS?$AA@  004350e0     pjsip-core-i386-win32-vc8-release:sip_transaction.obj
 0002:000020e4       ??_C@_03IIGECEEC@UAC?$AA@  004350e4     pjsip-core-i386-win32-vc8-release:sip_transaction.obj
 0002:000020e8       ??_C@_09KDBKJCNL@Destroyed?$AA@ 004350e8     pjsip-core-i386-win32-vc8-release:sip_transaction.obj
 0002:000020f4       ??_C@_0L@NNDINIPK@Terminated?$AA@ 004350f4     pjsip-core-i386-win32-vc8-release:sip_transaction.obj
 0002:00002100       ??_C@_09ONANMLIC@Confirmed?$AA@ 00435100     pjsip-core-i386-win32-vc8-release:sip_transaction.obj
 0002:0000210c       ??_C@_09MIJAKHKB@Completed?$AA@ 0043510c     pjsip-core-i386-win32-vc8-release:sip_transaction.obj
 0002:00002118       ??_C@_0L@BKKAFK@Proceeding?$AA@ 00435118     pjsip-core-i386-win32-vc8-release:sip_transaction.obj
 0002:00002124       ??_C@_07BNCBFEGH@Calling?$AA@ 00435124     pjsip-core-i386-win32-vc8-release:sip_transaction.obj
 0002:0000212c       ??_C@_04KHKKIIL@Null?$AA@  0043512c     pjsip-core-i386-win32-vc8-release:sip_transaction.obj
 0002:00002134       ??_C@_0O@CDKJIHHI@mod?9tsx?9layer?$AA@ 00435134     pjsip-core-i386-win32-vc8-release:sip_transaction.obj
 0002:00002144       ??_C@_08NHKHBNMC@tsxlayer?$AA@ 00435144     pjsip-core-i386-win32-vc8-release:sip_transaction.obj
 0002:00002150       ??_C@_0BC@LHFGMDJJ@sip_transaction?4c?$AA@ 00435150     pjsip-core-i386-win32-vc8-release:sip_transaction.obj
 0002:00002164       ??_C@_0DB@ELBLLJGF@Unable?5to?5register?5?$CF?4?$CKs?5transact@ 00435164     pjsip-core-i386-win32-vc8-release:sip_transaction.obj
 0002:00002198       ??_C@_0CD@MKMHPCL@Transaction?5layer?5module?5destroy@ 00435198     pjsip-core-i386-win32-vc8-release:sip_transaction.obj
 0002:000021bc       ??_C@_0DF@EFJDAPKP@Failed?5to?5register?5transaction?5l@ 004351bc     pjsip-core-i386-win32-vc8-release:sip_transaction.obj
 0002:000021f4       ??_C@_0BH@PDBDIMMK@Transaction?5destroyed?$CB?$AA@ 004351f4     pjsip-core-i386-win32-vc8-release:sip_transaction.obj
 0002:0000220c       ??_C@_0BH@NJDAONCL@Sending?5?$CFs?5in?5state?5?$CFs?$AA@ 0043520c     pjsip-core-i386-win32-vc8-release:sip_transaction.obj
 0002:00002224       ??_C@_0BI@PADDBGDM@Incoming?5?$CFs?5in?5state?5?$CFs?$AA@ 00435224     pjsip-core-i386-win32-vc8-release:sip_transaction.obj
 0002:0000223c       ??_C@_0CJ@CBOMABNM@Transport?5failed?5to?5send?5?$CFs?$CB?5Err@ 0043523c     pjsip-core-i386-win32-vc8-release:sip_transaction.obj
 0002:00002268       ??_C@_0DE@PFNICBJL@Will?5destroy?5later?5because?5trans@ 00435268     pjsip-core-i386-win32-vc8-release:sip_transaction.obj
 0002:0000229c       ??_C@_0CG@BHDJKKPD@State?5changed?5from?5?$CFs?5to?5?$CFs?0?5eve@ 0043529c     pjsip-core-i386-win32-vc8-release:sip_transaction.obj
 0002:000022c4       ??_C@_0CB@LPCILHMH@Request?5to?5terminate?5transaction@ 004352c4     pjsip-core-i386-win32-vc8-release:sip_transaction.obj
 0002:000022e8       ??_C@_0BP@MFDMMFDJ@Failed?5to?5send?5?$CFs?$CB?5err?$DN?$CFd?5?$CI?$CFs?$CJ?$AA@ 004352e8     pjsip-core-i386-win32-vc8-release:sip_transaction.obj
 0002:00002308       ??_C@_0DG@HCJJGEJB@Temporary?5failure?5in?5sending?5?$CFs?0@ 00435308     pjsip-core-i386-win32-vc8-release:sip_transaction.obj
 0002:00002340       ??_C@_0DG@EDJHIGCF@Transport?5error?0?5terminating?5tra@ 00435340     pjsip-core-i386-win32-vc8-release:sip_transaction.obj
 0002:00002378       ??_C@_0BB@HMFOJBGF@Error?5sending?5?$CFs?$AA@ 00435378     pjsip-core-i386-win32-vc8-release:sip_transaction.obj
 0002:0000238c       ??_C@_0CI@CEFAFFOL@Retransmiting?5?$CFs?0?5count?$DN?$CFd?0?5rest@ 0043538c     pjsip-core-i386-win32-vc8-release:sip_transaction.obj
 0002:000023b4       ??_C@_0CK@BFJIAGKI@Received?5illegal?5ACK?5for?5?$CF?4?$CKs?5tr@ 004353b4     pjsip-core-i386-win32-vc8-release:sip_transaction.obj
 0002:000023e0       ??_C@_0CB@HOMFNBLL@Stopped?5transaction?5layer?5module@ 004353e0     pjsip-core-i386-win32-vc8-release:sip_transaction.obj
 0002:00002404       ??_C@_0CC@CEIKILH@Stopping?5transaction?5layer?5modul@ 00435404     pjsip-core-i386-win32-vc8-release:sip_transaction.obj
 0002:00002428       ??_C@_0P@ICKHIBGF@?$CFs?5timer?5event?$AA@ 00435428     pjsip-core-i386-win32-vc8-release:sip_transaction.obj
 0002:00002438       ??_C@_07MKALMBDJ@Timeout?$AA@ 00435438     pjsip-core-i386-win32-vc8-release:sip_transaction.obj
 0002:00002440       ??_C@_0L@KEAKDBBB@Retransmit?$AA@ 00435440     pjsip-core-i386-win32-vc8-release:sip_transaction.obj
 0002:0000244c       ??_C@_05NPMOPOBK@tsx?$CFp?$AA@ 0043544c     pjsip-core-i386-win32-vc8-release:sip_transaction.obj
 0002:00002454       ??_C@_03ILLHDCNP@tsx?$AA@  00435454     pjsip-core-i386-win32-vc8-release:sip_transaction.obj
 0002:00002458       ??_C@_0BL@NELPIPFA@Transaction?5created?5for?5?$CFs?$AA@ 00435458     pjsip-core-i386-win32-vc8-release:sip_transaction.obj
 0002:00002478       ??_C@_0ED@IJNOFMME@Error?3?5CSeq?5header?5contains?5diff@ 00435478     pjsip-core-i386-win32-vc8-release:sip_transaction.obj
 0002:000024c0       ??_C@_0EC@ICGMJAB@FATAL?3?5pj_ioqueue_recvfrom?$CI?$CJ?5err@ 004354c0     pjsip-core-i386-win32-vc8-release:sip_transport_udp.obj
 0002:00002504       ??_C@_0BN@BEFELMIM@Warning?3?5pj_ioqueue_recvfrom?$AA@ 00435504     pjsip-core-i386-win32-vc8-release:sip_transport_udp.obj
 0002:00002524       ??_C@_0BM@INPFFNPD@SIP?5UDP?5transport?5destroyed?$AA@ 00435524     pjsip-core-i386-win32-vc8-release:sip_transport_udp.obj
 0002:00002540       ??_C@_0BM@EECGNFMH@udp?5?$CFs?5?$FLpublished?5as?5?$CFs?3?$CFd?$FN?$AA@ 00435540     pjsip-core-i386-win32-vc8-release:sip_transport_udp.obj
 0002:0000255c       ??_C@_0DB@MDELAJDF@SIP?5?$CFs?5started?0?5published?5addres@ 0043555c     pjsip-core-i386-win32-vc8-release:sip_transport_udp.obj
 0002:00002590       ??_C@_03LHJHGOJD@?3?30?$AA@ 00435590     pjsip-core-i386-win32-vc8-release:sip_transport_udp.obj
 0002:00002594       ??_C@_07OHKHACFK@0?40?40?40?$AA@ 00435594     pjsip-core-i386-win32-vc8-release:sip_transport_udp.obj
 0002:0000259c       ??_C@_05DOGEOMC@udp?$CFp?$AA@ 0043559c     pjsip-core-i386-win32-vc8-release:sip_transport_udp.obj
 0002:000025a4       ??_C@_01LBDDMOBJ@?$FN?$AA@ 004355a4     pjsip-core-i386-win32-vc8-release:sip_transport_udp.obj
 0002:000025a8       ??_C@_01OHGJGJJP@?$FL?$AA@ 004355a8     pjsip-core-i386-win32-vc8-release:sip_transport_udp.obj
 0002:000025ac       ??_C@_07LINNJFLK@udpv6?$CFp?$AA@ 004355ac     pjsip-core-i386-win32-vc8-release:sip_transport_udp.obj
 0002:000025b4       ??_C@_0BE@KOJAAPOH@sip_transport_udp?4c?$AA@ 004355b4     pjsip-core-i386-win32-vc8-release:sip_transport_udp.obj
 0002:000025c8       ??_C@_0BC@BDGDHMHI@SIP?5UDP?5transport?$AA@ 004355c8     pjsip-core-i386-win32-vc8-release:sip_transport_udp.obj
 0002:000025dc       ??_C@_0BB@IDOBLAPN@?$CFs?3?5?$CFs?5?$FLcode?$DN?$CFd?$FN?$AA@ 004355dc     pjsip-core-i386-win32-vc8-release:sip_transport_tcp.obj
 0002:000025f0       ??_C@_0BM@HKGJKAHK@SIP?5TCP?5transport?5destroyed?$AA@ 004355f0     pjsip-core-i386-win32-vc8-release:sip_transport_tcp.obj
 0002:0000260c       ??_C@_0CB@PCGILDE@TCP?5transport?5destroyed?5normally@ 0043560c     pjsip-core-i386-win32-vc8-release:sip_transport_tcp.obj
 0002:00002630       ??_C@_0CL@FENNCGAI@TCP?5transport?5destroyed?5with?5rea@ 00435630     pjsip-core-i386-win32-vc8-release:sip_transport_tcp.obj
 0002:0000265c       ??_C@_0CM@POHAPFFF@pj_activesock_start_read?$CI?$CJ?5error@ 0043565c     pjsip-core-i386-win32-vc8-release:sip_transport_tcp.obj
 0002:00002688       ??_C@_0BG@HHDCAEDN@Unable?5to?5create?5pool?$AA@ 00435688     pjsip-core-i386-win32-vc8-release:sip_transport_tcp.obj
 0002:000026a0       ??_C@_0BK@CIEPOKAA@TCP?5send?$CI?$CJ?5error?0?5sent?$DN?$CFd?$AA@ 004356a0     pjsip-core-i386-win32-vc8-release:sip_transport_tcp.obj
 0002:000026bc       ??_C@_0BG@IILKCFP@TCP?5connection?5closed?$AA@ 004356bc     pjsip-core-i386-win32-vc8-release:sip_transport_tcp.obj
 0002:000026d4       ??_C@_0CA@COAPONPJ@Error?5sending?5keep?9alive?5packet?$AA@ 004356d4     pjsip-core-i386-win32-vc8-release:sip_transport_tcp.obj
 0002:000026f4       ??_C@_0CJ@BGCNPAGK@Sending?5?$CFd?5byte?$CIs?$CJ?5keep?9alive?5to@ 004356f4     pjsip-core-i386-win32-vc8-release:sip_transport_tcp.obj
 0002:00002720       ??_C@_0CO@PIABINJH@TCP?5transport?5?$CF?4?$CKs?3?$CFd?5is?5connect@ 00435720     pjsip-core-i386-win32-vc8-release:sip_transport_tcp.obj
 0002:00002750       ??_C@_0BE@FIBBDPPG@TCP?5connect?$CI?$CJ?5error?$AA@ 00435750     pjsip-core-i386-win32-vc8-release:sip_transport_tcp.obj
 0002:00002764       ??_C@_0BJ@DFHDKEKC@TCP?5?$CFs?5transport?5created?$AA@ 00435764     pjsip-core-i386-win32-vc8-release:sip_transport_tcp.obj
 0002:00002780       ??_C@_06DGDLPBAN@client?$AA@ 00435780     pjsip-core-i386-win32-vc8-release:sip_transport_tcp.obj
 0002:00002788       ??_C@_06HJHJCKIO@server?$AA@ 00435788     pjsip-core-i386-win32-vc8-release:sip_transport_tcp.obj
 0002:00002790       ??_C@_08CNIFCNBJ@?$CFs?5to?5?$CFs?$AA@ 00435790     pjsip-core-i386-win32-vc8-release:sip_transport_tcp.obj
 0002:0000279c       ??_C@_06DFCMOMJC@tcpc?$CFp?$AA@ 0043579c     pjsip-core-i386-win32-vc8-release:sip_transport_tcp.obj
 0002:000027a4       ??_C@_06GFDFLLAN@tcps?$CFp?$AA@ 004357a4     pjsip-core-i386-win32-vc8-release:sip_transport_tcp.obj
 0002:000027ac       ??_C@_03FPEIBLKH@tcp?$AA@  004357ac     pjsip-core-i386-win32-vc8-release:sip_transport_tcp.obj
 0002:000027b0       ??_C@_04FMMHFHOO@?$AN?6?$AN?6?$AA@ 004357b0     pjsip-core-i386-win32-vc8-release:sip_transport_tcp.obj
 0002:000027b8       ??_C@_0DC@DDJEFAFO@TCP?5transport?5?$CF?4?$CKs?3?$CFd?5is?5connect@ 004357b8     pjsip-core-i386-win32-vc8-release:sip_transport_tcp.obj
 0002:000027ec       ??_C@_0BI@FPEGINLL@outgoing?5SIP?5TCP?5socket?$AA@ 004357ec     pjsip-core-i386-win32-vc8-release:sip_transport_tcp.obj
 0002:00002804       ??_C@_0BI@EPFKOGCB@New?5transport?5cancelled?$AA@ 00435804     pjsip-core-i386-win32-vc8-release:sip_transport_tcp.obj
 0002:0000281c       ??_C@_0BI@LLEHCIEH@incoming?5SIP?5TCP?5socket?$AA@ 0043581c     pjsip-core-i386-win32-vc8-release:sip_transport_tcp.obj
 0002:00002838       ??_C@_0ED@KEGBPDAH@TCP?5listener?5?$CF?4?$CKs?3?$CFd?3?5got?5incomi@ 00435838     pjsip-core-i386-win32-vc8-release:sip_transport_tcp.obj
 0002:0000287c       ??_C@_0DL@FNMEJJLB@SIP?5TCP?5listener?5ready?5for?5incom@ 0043587c     pjsip-core-i386-win32-vc8-release:sip_transport_tcp.obj
 0002:000028b8       ??_C@_0BO@KGENOBEO@tcp?5?$CFs?5?$FLpublished?5as?5?$CF?4?$CKs?3?$CFd?$FN?$AA@ 004358b8     pjsip-core-i386-win32-vc8-release:sip_transport_tcp.obj
 0002:000028d8       ??_C@_08MPFFJDIO@tcptp?3?$CFd?$AA@ 004358d8     pjsip-core-i386-win32-vc8-release:sip_transport_tcp.obj
 0002:000028e4       ??_C@_0CF@JENAKNGB@Warning?3?5error?5applying?5SO_REUSE@ 004358e4     pjsip-core-i386-win32-vc8-release:sip_transport_tcp.obj
 0002:0000290c       ??_C@_0BI@POMKCEN@SIP?5TCP?5listener?5socket?$AA@ 0043590c     pjsip-core-i386-win32-vc8-release:sip_transport_tcp.obj
 0002:00002924       ??_C@_01DHDKHMHF@6?$AA@    00435924     pjsip-core-i386-win32-vc8-release:sip_transport_tcp.obj
 0002:00002928       ??_C@_05BHOEAFPA@tcptp?$AA@ 00435928     pjsip-core-i386-win32-vc8-release:sip_transport_tcp.obj
 0002:00002930       ??_C@_06OGFLLFJI@rfc822?$AA@ 00435930     pjsip-core-i386-win32-vc8-release:sip_multipart.obj
 0002:00002938       ??_C@_07ONPBMBOP@message?$AA@ 00435938     pjsip-core-i386-win32-vc8-release:sip_multipart.obj
 0002:00002940       ??_C@_06IJPNAHC@digest?$AA@ 00435940     pjsip-core-i386-win32-vc8-release:sip_multipart.obj
 0002:00002948       ??_C@_0BA@LBAHDFBC@sip_multipart?4c?$AA@ 00435948     pjsip-core-i386-win32-vc8-release:sip_multipart.obj
 0002:00002958       ??_C@_0CI@MEJEAPPA@Warning?3?5error?5parsing?5multipart@ 00435958     pjsip-core-i386-win32-vc8-release:sip_multipart.obj
 0002:00002980       ??_C@_08KIKGFOKI@boundary?$AA@ 00435980     pjsip-core-i386-win32-vc8-release:sip_multipart.obj
 0002:00002990       ??_C@_0EO@HHPEFGCJ@Error?3?5multipart?5boundary?5not?5sp@ 00435990     pjsip-core-i386-win32-vc8-release:sip_multipart.obj
 0002:000029e0       ??_C@_0FD@FFFCNLOH@Warning?3?5boundary?5parameter?5not?5@ 004359e0     pjsip-core-i386-win32-vc8-release:sip_multipart.obj
 0002:00002a34       ??_C@_05IOGGPFMA@rport?$AA@ 00435a34     pjsip-core-i386-win32-vc8-release:sip_parser.obj
 0002:00002a3c       ??_C@_03FJEPELFP@tag?$AA@  00435a3c     pjsip-core-i386-win32-vc8-release:sip_parser.obj
 0002:00002a40       ??_C@_07MJGJEDBB@expires?$AA@ 00435a40     pjsip-core-i386-win32-vc8-release:sip_parser.obj
 0002:00002a48       ??_C@_01IIACKFLH@q?$AA@    00435a48     pjsip-core-i386-win32-vc8-release:sip_parser.obj
 0002:00002a4c       ??_C@_08CIDECLFI@received?$AA@ 00435a4c     pjsip-core-i386-win32-vc8-release:sip_parser.obj
 0002:00002a58       ??_C@_03KAFGPDAP@ttl?$AA@  00435a58     pjsip-core-i386-win32-vc8-release:sip_parser.obj
 0002:00002a5c       ??_C@_06KAEOJLJM@branch?$AA@ 00435a5c     pjsip-core-i386-win32-vc8-release:sip_parser.obj
 0002:00002a64       ??_C@_03LNLCDKEI@tel?$AA@  00435a64     pjsip-core-i386-win32-vc8-release:sip_parser.obj
 0002:00002a68       ??_C@_02FMHKAPNN@lr?$AA@   00435a68     pjsip-core-i386-win32-vc8-release:sip_parser.obj
 0002:00002a6c       ??_C@_05LIJGAEPJ@maddr?$AA@ 00435a6c     pjsip-core-i386-win32-vc8-release:sip_parser.obj
 0002:00002a74       ??_C@_09PBENLGJM@transport?$AA@ 00435a74     pjsip-core-i386-win32-vc8-release:sip_parser.obj
 0002:00002a80       ??_C@_06GABBCIBA@method?$AA@ 00435a80     pjsip-core-i386-win32-vc8-release:sip_parser.obj
 0002:00002a88       ??_C@_04CCHAHKJA@user?$AA@ 00435a88     pjsip-core-i386-win32-vc8-release:sip_parser.obj
 0002:00002a90       ??_C@_03EDDBLLFO@?6?$AN?6?$AA@ 00435a90     pjsip-core-i386-win32-vc8-release:sip_parser.obj
 0002:00002a94       ??_C@_03GJAMENNA@2?40?$AA@ 00435a94     pjsip-core-i386-win32-vc8-release:sip_parser.obj
 0002:00002a98       ??_C@_03MCPDGLLE@SIP?$AA@  00435a98     pjsip-core-i386-win32-vc8-release:sip_parser.obj
 0002:00002a9c       ??_C@_01CLKCMJKC@?5?$AA@   00435a9c     pjsip-core-i386-win32-vc8-release:sip_parser.obj
 0002:00002aa0       ??_C@_0N@CDHGOKB@sip_parser?4c?$AA@ 00435aa0     pjsip-core-i386-win32-vc8-release:sip_parser.obj
 0002:00002ab0       ??_C@_0CM@MBFLJJMP@Error?5parsing?5header?3?5?8?$CF?4?$CKs?8?5lin@ 00435ab0     pjsip-core-i386-win32-vc8-release:sip_parser.obj
 0002:00002adc       ??_C@_0M@KNCMEJPH@Status?5Line?$AA@ 00435adc     pjsip-core-i386-win32-vc8-release:sip_parser.obj
 0002:00002ae8       ??_C@_0N@KMCODECP@Request?5Line?$AA@ 00435ae8     pjsip-core-i386-win32-vc8-release:sip_parser.obj
 0002:00002af8       ??_C@_0BH@KMKLEGFJ@?$CD?$DP?$DL?3?$EA?$CG?$DN?$CL?9_?4?$CB?$HO?$CK?8?$CI?$CJ?$CF$?0?1?$CF?$AA@ 00435af8     pjsip-core-i386-win32-vc8-release:sip_parser.obj
 0002:00002b10       ??_C@_04FOECIMDB@?3?$AN?6?$DM?$AA@ 00435b10     pjsip-core-i386-win32-vc8-release:sip_parser.obj
 0002:00002b18       ??_C@_04INEOGBDO@?$EA?5?6?$DO?$AA@ 00435b18     pjsip-core-i386-win32-vc8-release:sip_parser.obj
 0002:00002b20       ??_C@_0BA@GJPAFF@?9_?4?$CB?$HO?$CK?8?$CI?$CJ?$CF?$CG?$DN?$CL$?0?$AA@ 00435b20     pjsip-core-i386-win32-vc8-release:sip_parser.obj
 0002:00002b30       ??_C@_01IPJKGB@?$CD?$AA@   00435b30     pjsip-core-i386-win32-vc8-release:sip_parser.obj
 0002:00002b34       ??_C@_0BD@FAKEDBHK@?9_?4?$CB?$HO?$CK?8?$CI?$CJ?$CF?$CG?$DN?$CL$?0?$DL?$DP?1?$AA@ 00435b34     pjsip-core-i386-win32-vc8-release:sip_parser.obj
 0002:00002b48       ??_C@_0BC@DHLPLEEN@?$FL?$FN?1?$DP?3?$CL$?9_?4?$CB?$HO?$CK?8?$CI?$CJ?$CF?$AA@ 00435b48     pjsip-core-i386-win32-vc8-release:sip_parser.obj
 0002:00002b5c       ??_C@_0BC@EIHPKHIH@?$FL?$FN?1?3?$CG?$CL$?9_?4?$CB?$HO?$CK?8?$CI?$CJ?$CF?$AA@ 00435b5c     pjsip-core-i386-win32-vc8-release:sip_parser.obj
 0002:00002b70       ??_C@_0N@INHGOOCE@abcdefABCDEF?$AA@ 00435b70     pjsip-core-i386-win32-vc8-release:sip_parser.obj
 0002:00002b80       ??_C@_03HGEHODII@_?9?4?$AA@ 00435b80     pjsip-core-i386-win32-vc8-release:sip_parser.obj
 0002:00002b84       ??_C@_01JLIPDDHJ@?3?$AA@   00435b84     pjsip-core-i386-win32-vc8-release:sip_parser.obj
 0002:00002b88       ??_C@_01FGNFDNOH@?$CF?$AA@ 00435b88     pjsip-core-i386-win32-vc8-release:sip_parser.obj
 0002:00002b8c       ??_C@_0L@LGCFMBHL@?9?4?$CB?$CF?$CK_?$GA?8?$HO?$CL?$AA@ 00435b8c     pjsip-core-i386-win32-vc8-release:sip_parser.obj
 0002:00002b98       ??_C@_03MGGIELLM@?0?$AN?6?$AA@ 00435b98     pjsip-core-i386-win32-vc8-release:sip_parser.obj
 0002:00002b9c       ??_C@_02PCIJFNDE@?$AN?6?$AA@ 00435b9c     pjsip-core-i386-win32-vc8-release:sip_parser.obj
 0002:00002ba0       ??_C@_0BD@IGJCFAAL@PJSIP?5syntax?5error?$AA@ 00435ba0     pjsip-core-i386-win32-vc8-release:sip_parser.obj
 0002:00002bb4       ??_C@_0BB@JCEFLFJE@0123456789abcdef?$AA@ 00435bb4     pjsip-core-i386-win32-vc8-release:sip_auth_client.obj
 0002:00002bc8       ??_C@_0BL@DHABBKFJ@Unsupported?5qop?5offer?5?$CF?4?$CKs?$AA@ 00435bc8     pjsip-core-i386-win32-vc8-release:sip_auth_client.obj
 0002:00002be4       ??_C@_06DKDPJBDF@b39971?$AA@ 00435be4     pjsip-core-i386-win32-vc8-release:sip_auth_client.obj
 0002:00002bec       ??_C@_04LIOHGJKM@?$CF08u?$AA@ 00435bec     pjsip-core-i386-win32-vc8-release:sip_auth_client.obj
 0002:00002bf4       ??_C@_0BC@IFICLNCF@sip_auth_client?4c?$AA@ 00435bf4     pjsip-core-i386-win32-vc8-release:sip_auth_client.obj
 0002:00002c08       ??_C@_0CE@PAGGDDKM@Unsupported?5digest?5algorithm?5?$CC?$CF?4@ 00435c08     pjsip-core-i386-win32-vc8-release:sip_auth_client.obj
 0002:00002c2c       ??_C@_09BBOOBJFI@AKAv1?9MD5?$AA@ 00435c2c     pjsip-core-i386-win32-vc8-release:sip_auth_client.obj
 0002:00002c38       ??_C@_0L@OLKLFLHC@auth_cli?$CFp?$AA@ 00435c38     pjsip-core-i386-win32-vc8-release:sip_auth_client.obj
 0002:00002c48       ??_C@_0EB@PMHMAEL@Unable?5to?5set?5auth?5for?5?$CFs?3?5can?5n@ 00435c48     pjsip-core-i386-win32-vc8-release:sip_auth_client.obj
 0002:00002c90       ??_C@_0EN@FFFABAE@Authorization?5failed?5for?5?$CF?4?$CKs?$EA?$CF?4@ 00435c90     pjsip-core-i386-win32-vc8-release:sip_auth_client.obj
 0002:00002ce0       ??_C@_0EF@GMAJJJPM@Authorization?5failed?5for?5?$CF?4?$CKs?$EA?$CF?4@ 00435ce0     pjsip-core-i386-win32-vc8-release:sip_auth_client.obj
 0002:00002d28       ??_C@_03KFFFHGHD@?$DLlr?$AA@ 00435d28     pjsip-core-i386-win32-vc8-release:sip_uri.obj
 0002:00002d2c       ??_C@_0M@OGEJDPOO@?$DLtransport?$DN?$AA@ 00435d2c     pjsip-core-i386-win32-vc8-release:sip_uri.obj
 0002:00002d38       ??_C@_08FIHANMDK@?$DLmethod?$DN?$AA@ 00435d38     pjsip-core-i386-win32-vc8-release:sip_uri.obj
 0002:00002d44       ??_C@_06BMAPCEPF@?$DLuser?$DN?$AA@ 00435d44     pjsip-core-i386-win32-vc8-release:sip_uri.obj
 0002:00002d4c       ??_C@_0CD@MNOGDEHE@DNS?5A?5record?5resolution?5failed?3?5@ 00435d4c     pjsip-core-i386-win32-vc8-release:sip_resolve.obj
 0002:00002d70       ??_C@_0CG@MIJEEMDF@DNS?5AAAA?5record?5resolution?5faile@ 00435d70     pjsip-core-i386-win32-vc8-release:sip_resolve.obj
 0002:00002d98       ??_C@_0CI@CCJDGPEP@DNS?5A?1AAAA?5record?5resolution?5fai@ 00435d98     pjsip-core-i386-win32-vc8-release:sip_resolve.obj
 0002:00002dc0       ??_C@_0DH@DPGIKKNN@Target?5?8?$CF?4?$CKs?3?$CFd?8?5type?$DN?$CFs?5resolve@ 00435dc0     pjsip-core-i386-win32-vc8-release:sip_resolve.obj
 0002:00002df8       ??_C@_0CG@CBPKEJKE@Failed?5to?5resolve?5?8?$CF?4?$CKs?8?4?5Err?$DN?$CFd@ 00435df8     pjsip-core-i386-win32-vc8-release:sip_resolve.obj
 0002:00002e20       ??_C@_0FJ@MFGCGKIL@DNS?5resolver?5not?5available?0?5targ@ 00435e20     pjsip-core-i386-win32-vc8-release:sip_resolve.obj
 0002:00002e80       ??_C@_0EE@KKBDDFND@Starting?5async?5DNS?5?$CFs?5query?3?5tar@ 00435e80     pjsip-core-i386-win32-vc8-release:sip_resolve.obj
 0002:00002ec4       ??_C@_0L@IGAKGJHB@_sip?4_udp?4?$AA@ 00435ec4     pjsip-core-i386-win32-vc8-release:sip_resolve.obj
 0002:00002ed0       ??_C@_0L@CGLNHIHI@_sip?4_tcp?4?$AA@ 00435ed0     pjsip-core-i386-win32-vc8-release:sip_resolve.obj
 0002:00002edc       ??_C@_0M@EKOGDFHO@_sips?4_tcp?4?$AA@ 00435edc     pjsip-core-i386-win32-vc8-release:sip_resolve.obj
 0002:00002ee8       ??_C@_0O@DMBGNNMG@sip_resolve?4c?$AA@ 00435ee8     pjsip-core-i386-win32-vc8-release:sip_resolve.obj
 0002:00002ef8       ??_C@_0O@IMLAOJJD@phone?9context?$AA@ 00435ef8     pjsip-core-i386-win32-vc8-release:sip_tel_uri.obj
 0002:00002f08       ??_C@_03MDPCKCMI@ext?$AA@  00435f08     pjsip-core-i386-win32-vc8-release:sip_tel_uri.obj
 0002:00002f0c       ??_C@_04NBIELBDC@isub?$AA@ 00435f0c     pjsip-core-i386-win32-vc8-release:sip_tel_uri.obj
 0002:00002f14       ??_C@_0BA@JDMJBMEF@?$DLphone?9context?$DN?$AA@ 00435f14     pjsip-core-i386-win32-vc8-release:sip_tel_uri.obj
 0002:00002f24       ??_C@_06CECEBCPK@?$DLisub?$DN?$AA@ 00435f24     pjsip-core-i386-win32-vc8-release:sip_tel_uri.obj
 0002:00002f2c       ??_C@_05OGMJFBEO@?$DLext?$DN?$AA@ 00435f2c     pjsip-core-i386-win32-vc8-release:sip_tel_uri.obj
 0002:00002f34       ??_C@_01NEMOKFLO@?$DN?$AA@ 00435f34     pjsip-core-i386-win32-vc8-release:sip_tel_uri.obj
 0002:00002f38       ??_C@_0BM@IILGPONN@?$FL?$FN?1?3?$CG?$CL$0123456789?9_?4?$CB?$HO?$CK?8?$CI?$CJ?$CF?$AA@ 00435f38     pjsip-core-i386-win32-vc8-release:sip_tel_uri.obj
 0002:00002f54       ??_C@_01JOAMLHOP@?9?$AA@   00435f54     pjsip-core-i386-win32-vc8-release:sip_tel_uri.obj
 0002:00002f58       ??_C@_0BP@LJHGJILO@?1?3?$EA?$CG$?0?$CL0123456789?9_?4?$CB?$HO?$CK?8?$CI?$CJ?$CF?$FL?$FN?$CL?$AA@ 00435f58     pjsip-core-i386-win32-vc8-release:sip_tel_uri.obj
 0002:00002f78       ??_C@_0BA@NHFLMIGM@?$CL0123456789?9?4?$CI?$CJ?$AA@ 00435f78     pjsip-core-i386-win32-vc8-release:sip_tel_uri.obj
 0002:00002f88       ??_C@_04DCHJLDOJ@?9?4?$CI?$CJ?$AA@ 00435f88     pjsip-core-i386-win32-vc8-release:sip_tel_uri.obj
 0002:00002f90       ??_C@_0CM@MMELMJHM@0123456789aAbBcCdDeEfF?$CK?$CD?9?4?$CI?$CJ?$CL012@ 00435f90     pjsip-core-i386-win32-vc8-release:sip_tel_uri.obj
 0002:00002fbc       ??_C@_0P@KBNHNABO@0123456789?9?4?$CI?$CJ?$AA@ 00435fbc     pjsip-core-i386-win32-vc8-release:sip_tel_uri.obj
 0002:00002fcc       ??_C@_0DK@PDMPPIHB@SSL?5certificate?5verification?5err@ 00435fcc     pjsip-core-i386-win32-vc8-release:sip_errno.obj
 0002:00003008       ??_C@_0DE@NMMHGAJD@SSL?5negotiation?5has?5timed?5out?5?$CIP@ 00436008     pjsip-core-i386-win32-vc8-release:sip_errno.obj
 0002:0000303c       ??_C@_0DG@GNCBAFL@Unknown?5error?5when?5reading?5SSL?5d@ 0043603c     pjsip-core-i386-win32-vc8-release:sip_errno.obj
 0002:00003074       ??_C@_0DG@LGELLHGA@Unknown?5error?5when?5sending?5SSL?5d@ 00436074     pjsip-core-i386-win32-vc8-release:sip_errno.obj
 0002:000030ac       ??_C@_0DP@CGFDGHCM@Unknown?5error?5when?5performing?5SS@ 004360ac     pjsip-core-i386-win32-vc8-release:sip_errno.obj
 0002:000030f0       ??_C@_0EB@LOJLDGBN@Unknown?5error?5when?5performing?5SS@ 004360f0     pjsip-core-i386-win32-vc8-release:sip_errno.obj
 0002:00003134       ??_C@_0DK@GBGOJKMK@Error?5creating?5SSL?5connection?5ob@ 00436134     pjsip-core-i386-win32-vc8-release:sip_errno.obj
 0002:00003170       ??_C@_0CM@KJHKFFIL@Error?5creating?5SSL?5context?5?$CIPJSI@ 00436170     pjsip-core-i386-win32-vc8-release:sip_errno.obj
 0002:0000319c       ??_C@_0DC@HMDIEPNK@Error?5setting?5SSL?5cipher?5list?5?$CIP@ 0043619c     pjsip-core-i386-win32-vc8-release:sip_errno.obj
 0002:000031d0       ??_C@_0EI@PNDINLEB@Error?5adding?5private?5key?5from?5SS@ 004361d0     pjsip-core-i386-win32-vc8-release:sip_errno.obj
 0002:00003218       ??_C@_0DP@NPMNFNID@Error?5loading?5SSL?5certificate?5ch@ 00436218     pjsip-core-i386-win32-vc8-release:sip_errno.obj
 0002:00003258       ??_C@_0DN@LHDHPIOK@Error?5loading?1verifying?5SSL?5CA?5l@ 00436258     pjsip-core-i386-win32-vc8-release:sip_errno.obj
 0002:00003298       ??_C@_0DD@NFLPGFPJ@Invalid?5SSL?5protocol?5method?5?$CIPJS@ 00436298     pjsip-core-i386-win32-vc8-release:sip_errno.obj
 0002:000032cc       ??_C@_0CH@HBADBAEP@Unknown?5TLS?5error?5?$CIPJSIP_TLS_EUN@ 004362cc     pjsip-core-i386-win32-vc8-release:sip_errno.obj
 0002:000032f4       ??_C@_0DK@CJAGEDOD@Require?5secure?5session?1transport@ 004362f4     pjsip-core-i386-win32-vc8-release:sip_errno.obj
 0002:00003330       ??_C@_0DD@DMBFAKPC@Invalid?5INVITE?5session?5state?5?$CIPJ@ 00436330     pjsip-core-i386-win32-vc8-release:sip_errno.obj
 0002:00003364       ??_C@_0DN@EOKOKJCK@INVITE?5session?5already?5terminate@ 00436364     pjsip-core-i386-win32-vc8-release:sip_errno.obj
 0002:000033a4       ??_C@_0DP@GMKFENNH@Not?5associated?5with?5REFER?5subscr@ 004363a4     pjsip-core-i386-win32-vc8-release:sip_errno.obj
 0002:000033e4       ??_C@_0CK@NLEHMEII@Expecting?5REFER?5request?5?$CIPJSIP_E@ 004363e4     pjsip-core-i386-win32-vc8-release:sip_errno.obj
 0002:00003410       ??_C@_0DC@HLPJEBKI@Missing?5From?1To?5tag?5parameter?5?$CIP@ 00436410     pjsip-core-i386-win32-vc8-release:sip_errno.obj
 0002:00003444       ??_C@_0CK@IIJPHHCN@No?5challenge?5is?5found?5?$CIPJSIP_EAU@ 00436444     pjsip-core-i386-win32-vc8-release:sip_errno.obj
 0002:00003470       ??_C@_0CO@PNJFNJKN@Invalid?5AKA?5credential?5?$CIPJSIP_EA@ 00436470     pjsip-core-i386-win32-vc8-release:sip_errno.obj
 0002:000034a0       ??_C@_0EF@LIONEPAL@Invalid?5nonce?5value?5in?5authentic@ 004364a0     pjsip-core-i386-win32-vc8-release:sip_errno.obj
 0002:000034e8       ??_C@_0EB@JCHOOAEG@Maximum?5number?5of?5stale?5retries?5@ 004364e8     pjsip-core-i386-win32-vc8-release:sip_errno.obj
 0002:0000352c       ??_C@_0DI@MHHCMF@Invalid?5authorization?5digest?5?$CIPJ@ 0043652c     pjsip-core-i386-win32-vc8-release:sip_errno.obj
 0002:00003564       ??_C@_0DG@HIIKPIBJ@Invalid?5authorization?5realm?5?$CIPJS@ 00436564     pjsip-core-i386-win32-vc8-release:sip_errno.obj
 0002:0000359c       ??_C@_0DL@CMLHLLPG@Account?5or?5credential?5is?5disable@ 0043659c     pjsip-core-i386-win32-vc8-release:sip_errno.obj
 0002:000035d8       ??_C@_0DJ@LPEDCKOO@Account?5or?5credential?5not?5found?5@ 004365d8     pjsip-core-i386-win32-vc8-release:sip_errno.obj
 0002:00003614       ??_C@_0DF@DNNICPPN@No?5suitable?5authorization?5header@ 00436614     pjsip-core-i386-win32-vc8-release:sip_errno.obj
 0002:0000364c       ??_C@_0CO@BMGFFPME@No?5previous?5challenge?5?$CIPJSIP_EAU@ 0043664c     pjsip-core-i386-win32-vc8-release:sip_errno.obj
 0002:0000367c       ??_C@_0DN@GPEKONDD@Unsupported?5authentication?5schem@ 0043667c     pjsip-core-i386-win32-vc8-release:sip_errno.obj
 0002:000036bc       ??_C@_0DD@GJOGBLMF@Invalid?1unsupported?5digest?5qop?5?$CI@ 004366bc     pjsip-core-i386-win32-vc8-release:sip_errno.obj
 0002:000036f0       ??_C@_0DP@NGPGIDFF@Invalid?1unsupported?5digest?5algor@ 004366f0     pjsip-core-i386-win32-vc8-release:sip_errno.obj
 0002:00003730       ??_C@_0CN@IIEEILJJ@No?5suitable?5credential?5?$CIPJSIP_EN@ 00436730     pjsip-core-i386-win32-vc8-release:sip_errno.obj
 0002:00003760       ??_C@_0DM@LOOBEDNN@Credential?5failed?5to?5authenticat@ 00436760     pjsip-core-i386-win32-vc8-release:sip_errno.obj
 0002:0000379c       ??_C@_0DG@CFNMFPOM@URI?5header?5parameter?5mismatch?5?$CIP@ 0043679c     pjsip-core-i386-win32-vc8-release:sip_errno.obj
 0002:000037d4       ??_C@_0DA@DADPPELC@URI?5other?5param?5mismatch?5?$CIPJSIP_@ 004367d4     pjsip-core-i386-win32-vc8-release:sip_errno.obj
 0002:00003804       ??_C@_0DA@HIHPGKKA@URI?5maddr?5param?5mismatch?5?$CIPJSIP_@ 00436804     pjsip-core-i386-win32-vc8-release:sip_errno.obj
 0002:00003834       ??_C@_0DC@BPANLPFC@URI?5method?5param?5mismatch?5?$CIPJSIP@ 00436834     pjsip-core-i386-win32-vc8-release:sip_errno.obj
 0002:00003868       ??_C@_0CO@PNILAMMK@URI?5user?5param?5mismatch?5?$CIPJSIP_E@ 00436868     pjsip-core-i386-win32-vc8-release:sip_errno.obj
 0002:00003898       ??_C@_0CM@PONOAHFI@URI?5ttl?5param?5mismatch?5?$CIPJSIP_EC@ 00436898     pjsip-core-i386-win32-vc8-release:sip_errno.obj
 0002:000038c4       ??_C@_0DG@KAIIGJOM@URI?5transport?5param?5mismatch?5?$CIPJ@ 004368c4     pjsip-core-i386-win32-vc8-release:sip_errno.obj
 0002:000038fc       ??_C@_0CD@LGFLCNGN@URI?5port?5mismatch?5?$CIPJSIP_ECMPPOR@ 004368fc     pjsip-core-i386-win32-vc8-release:sip_errno.obj
 0002:00003920       ??_C@_0CI@CAAENIBN@URI?5host?5part?5mismatch?5?$CIPJSIP_EC@ 00436920     pjsip-core-i386-win32-vc8-release:sip_errno.obj
 0002:00003948       ??_C@_0CO@NLCBDNGP@URI?5password?5part?5mismatch?5?$CIPJSI@ 00436948     pjsip-core-i386-win32-vc8-release:sip_errno.obj
 0002:00003978       ??_C@_0CI@DCNDLDIL@URI?5user?5part?5mismatch?5?$CIPJSIP_EC@ 00436978     pjsip-core-i386-win32-vc8-release:sip_errno.obj
 0002:000039a0       ??_C@_0CH@EBPFAGMB@URI?5scheme?5mismatch?5?$CIPJSIP_ECMPS@ 004369a0     pjsip-core-i386-win32-vc8-release:sip_errno.obj
 0002:000039c8       ??_C@_0FM@JGDLJGMK@No?5transaction?5is?5associated?5wit@ 004369c8     pjsip-core-i386-win32-vc8-release:sip_errno.obj
 0002:00003a24       ??_C@_0DF@DPMOHHML@Transaction?5has?5been?5destroyed?5?$CI@ 00436a24     pjsip-core-i386-win32-vc8-release:sip_errno.obj
 0002:00003a5c       ??_C@_0DE@NJLNEKOM@Transport?5not?5available?5for?5use?5@ 00436a5c     pjsip-core-i386-win32-vc8-release:sip_errno.obj
 0002:00003a90       ??_C@_0DF@PBAMDOH@Unsuitable?5transport?5selected?5?$CIP@ 00436a90     pjsip-core-i386-win32-vc8-release:sip_errno.obj
 0002:00003ac8       ??_C@_0CH@IPJBAOPN@Buffer?5destroyed?5?$CIPJSIP_EBUFDEST@ 00436ac8     pjsip-core-i386-win32-vc8-release:sip_errno.obj
 0002:00003af0       ??_C@_0CH@FGKEPDFL@Rx?5buffer?5overflow?5?$CIPJSIP_ERXOVE@ 00436af0     pjsip-core-i386-win32-vc8-release:sip_errno.obj
 0002:00003b18       ??_C@_0DD@FMJGJHHJ@Transmit?5buffer?5already?5pending?5@ 00436b18     pjsip-core-i386-win32-vc8-release:sip_errno.obj
 0002:00003b4c       ??_C@_0CO@MKNJKJDL@Unsupported?5transport?5?$CIPJSIP_EUN@ 00436b4c     pjsip-core-i386-win32-vc8-release:sip_errno.obj
 0002:00003b7c       ??_C@_0DB@NINEONMP@Invalid?1unexpected?5method?5?$CIPJSIP@ 00436b7c     pjsip-core-i386-win32-vc8-release:sip_errno.obj
 0002:00003bb0       ??_C@_0CK@LJCOFGPN@Missing?5message?5body?5?$CIPJSIP_EMIS@ 00436bb0     pjsip-core-i386-win32-vc8-release:sip_errno.obj
 0002:00003bdc       ??_C@_0DG@HLMABLPG@Multiple?5Via?5headers?5in?5response@ 00436bdc     pjsip-core-i386-win32-vc8-release:sip_errno.obj
 0002:00003c14       ??_C@_0CH@NDGOCBBP@Invalid?5Via?5header?5?$CIPJSIP_EINVAL@ 00436c14     pjsip-core-i386-win32-vc8-release:sip_errno.obj
 0002:00003c3c       ??_C@_0CJ@GFIBJIAO@Invalid?5header?5field?5?$CIPJSIP_EINV@ 00436c3c     pjsip-core-i386-win32-vc8-release:sip_errno.obj
 0002:00003c68       ??_C@_0CP@PNHNBIME@Missing?5required?5header?$CIs?$CJ?5?$CIPJSI@ 00436c68     pjsip-core-i386-win32-vc8-release:sip_errno.obj
 0002:00003c98       ??_C@_0CE@NBJPLEOO@URI?5is?5too?5long?5?$CIPJSIP_EURITOOLO@ 00436c98     pjsip-core-i386-win32-vc8-release:sip_errno.obj
 0002:00003cbc       ??_C@_0CL@JOKFDOLI@Invalid?5Request?5URI?5?$CIPJSIP_EINVA@ 00436cbc     pjsip-core-i386-win32-vc8-release:sip_errno.obj
 0002:00003ce8       ??_C@_0CL@FGPCAKCH@Missing?5Request?9URI?5?$CIPJSIP_EMISS@ 00436ce8     pjsip-core-i386-win32-vc8-release:sip_errno.obj
 0002:00003d14       ??_C@_0CK@PDIHHAGH@Invalid?5URI?5scheme?5?$CIPJSIP_EINVAL@ 00436d14     pjsip-core-i386-win32-vc8-release:sip_errno.obj
 0002:00003d40       ??_C@_0CA@ICJGNPBL@Invalid?5URI?5?$CIPJSIP_EINVALIDURI?$CJ?$AA@ 00436d40     pjsip-core-i386-win32-vc8-release:sip_errno.obj
 0002:00003d60       ??_C@_0DK@HMGLEHFD@Invalid?1unexpected?5SIP?5status?5co@ 00436d60     pjsip-core-i386-win32-vc8-release:sip_errno.obj
 0002:00003d9c       ??_C@_0CE@FONCLLMK@Partial?5message?5?$CIPJSIP_EPARTIALM@ 00436d9c     pjsip-core-i386-win32-vc8-release:sip_errno.obj
 0002:00003dc0       ??_C@_0CF@NOACODOC@Message?5too?5long?5?$CIPJSIP_EMSGTOOL@ 00436dc0     pjsip-core-i386-win32-vc8-release:sip_errno.obj
 0002:00003de8       ??_C@_0DD@MODFKCPK@Expecting?5response?5message?5?$CIPJSI@ 00436de8     pjsip-core-i386-win32-vc8-release:sip_errno.obj
 0002:00003e1c       ??_C@_0DB@NNKMNMEK@Expecting?5request?5message?5?$CIPJSIP@ 00436e1c     pjsip-core-i386-win32-vc8-release:sip_errno.obj
 0002:00003e50       ??_C@_0DB@LNGCHBD@Invalid?5message?1syntax?5error?5?$CIPJ@ 00436e50     pjsip-core-i386-win32-vc8-release:sip_errno.obj
 0002:00003e84       ??_C@_0DF@DFCKLJD@Missing?5route?5set?5?$CIfor?5tel?3?5URI?$CJ@ 00436e84     pjsip-core-i386-win32-vc8-release:sip_errno.obj
 0002:00003ebc       ??_C@_0DH@GEJHNFDM@SIP?5object?5is?5not?5initialized?4?5?$CI@ 00436ebc     pjsip-core-i386-win32-vc8-release:sip_errno.obj
 0002:00003ef4       ??_C@_0CK@JJDNDGNE@SIP?5stack?5shutting?5down?5?$CIPJSIP_E@ 00436ef4     pjsip-core-i386-win32-vc8-release:sip_errno.obj
 0002:00003f20       ??_C@_0DF@LHIGDAHP@Object?5with?5the?5same?5type?5exists@ 00436f20     pjsip-core-i386-win32-vc8-release:sip_errno.obj
 0002:00003f58       ??_C@_0BN@NDHPCAAG@Object?5is?5busy?5?$CIPJSIP_EBUSY?$CJ?$AA@ 00436f58     pjsip-core-i386-win32-vc8-release:sip_errno.obj
 0002:000041e0       ??_C@_0BH@IINGFMKF@Unknown?5pjsip?5error?5?$CFd?$AA@ 004371e0     pjsip-core-i386-win32-vc8-release:sip_errno.obj
 0002:000041f8       ??_C@_06MNAAFAAH@?$CCauth?$CC?$AA@ 004371f8     pjsip-core-i386-win32-vc8-release:sip_auth_parser.obj
 0002:00004200       ??_C@_04DPLCCHJC@auth?$AA@ 00437200     pjsip-core-i386-win32-vc8-release:sip_auth_parser.obj
 0002:00004208       ??_C@_05FEKNEIJC@?$CCmd5?$CC?$AA@ 00437208     pjsip-core-i386-win32-vc8-release:sip_auth_parser.obj
 0002:00004210       ??_C@_03PKBIKOHH@md5?$AA@  00437210     pjsip-core-i386-win32-vc8-release:sip_auth_parser.obj
 0002:00004214       ??_C@_05PBIHDNLO@?$CCPGP?$CC?$AA@ 00437214     pjsip-core-i386-win32-vc8-release:sip_auth_parser.obj
 0002:0000421c       ??_C@_03NKNIOJFA@PGP?$AA@  0043721c     pjsip-core-i386-win32-vc8-release:sip_auth_parser.obj
 0002:00004220       ??_C@_08MPOLMKFE@?$CCDigest?$CC?$AA@ 00437220     pjsip-core-i386-win32-vc8-release:sip_auth_parser.obj
 0002:0000422c       ??_C@_06MHCCOJOO@Digest?$AA@ 0043722c     pjsip-core-i386-win32-vc8-release:sip_auth_parser.obj
 0002:00004234       ??_C@_07MGKGDKEI@?$CCfalse?$CC?$AA@ 00437234     pjsip-core-i386-win32-vc8-release:sip_auth_parser.obj
 0002:0000423c       ??_C@_05LAPONLG@false?$AA@ 0043723c     pjsip-core-i386-win32-vc8-release:sip_auth_parser.obj
 0002:00004244       ??_C@_06JMFPOLAJ@?$CCtrue?$CC?$AA@ 00437244     pjsip-core-i386-win32-vc8-release:sip_auth_parser.obj
 0002:0000424c       ??_C@_04LOAJBDKD@true?$AA@ 0043724c     pjsip-core-i386-win32-vc8-release:sip_auth_parser.obj
 0002:00004254       ??_C@_02MCHPIKD@nc?$AA@    00437254     pjsip-core-i386-win32-vc8-release:sip_auth_parser.obj
 0002:00004258       ??_C@_06CJCOLNBB@opaque?$AA@ 00437258     pjsip-core-i386-win32-vc8-release:sip_auth_parser.obj
 0002:00004260       ??_C@_06HILDJCOE@cnonce?$AA@ 00437260     pjsip-core-i386-win32-vc8-release:sip_auth_parser.obj
 0002:00004268       ??_C@_03GBIMBCPB@qop?$AA@  00437268     pjsip-core-i386-win32-vc8-release:sip_auth_parser.obj
 0002:0000426c       ??_C@_05BFAEFKPM@stale?$AA@ 0043726c     pjsip-core-i386-win32-vc8-release:sip_auth_parser.obj
 0002:00004274       ??_C@_06LKIIGAOE@domain?$AA@ 00437274     pjsip-core-i386-win32-vc8-release:sip_auth_parser.obj
 0002:0000427c       ??_C@_09JPNFBOJG@algorithm?$AA@ 0043727c     pjsip-core-i386-win32-vc8-release:sip_auth_parser.obj
 0002:00004288       ??_C@_08HKMEAON@response?$AA@ 00437288     pjsip-core-i386-win32-vc8-release:sip_auth_parser.obj
 0002:00004294       ??_C@_03GBBABMJN@uri?$AA@  00437294     pjsip-core-i386-win32-vc8-release:sip_auth_parser.obj
 0002:00004298       ??_C@_05OOEDLKEB@nonce?$AA@ 00437298     pjsip-core-i386-win32-vc8-release:sip_auth_parser.obj
 0002:000042a0       ??_C@_05ELABLNGD@realm?$AA@ 004372a0     pjsip-core-i386-win32-vc8-release:sip_auth_parser.obj
 0002:000042a8       ??_C@_08ODGEKKOL@username?$AA@ 004372a8     pjsip-core-i386-win32-vc8-release:sip_auth_parser.obj
 0002:000042b4       _pjsip_USERNAME_STR        004372b4     pjsip-core-i386-win32-vc8-release:sip_auth_parser.obj
 0002:000042bc       _pjsip_REALM_STR           004372bc     pjsip-core-i386-win32-vc8-release:sip_auth_parser.obj
 0002:000042c4       _pjsip_NONCE_STR           004372c4     pjsip-core-i386-win32-vc8-release:sip_auth_parser.obj
 0002:000042cc       _pjsip_URI_STR             004372cc     pjsip-core-i386-win32-vc8-release:sip_auth_parser.obj
 0002:000042d4       _pjsip_RESPONSE_STR        004372d4     pjsip-core-i386-win32-vc8-release:sip_auth_parser.obj
 0002:000042dc       _pjsip_ALGORITHM_STR       004372dc     pjsip-core-i386-win32-vc8-release:sip_auth_parser.obj
 0002:000042e4       _pjsip_DOMAIN_STR          004372e4     pjsip-core-i386-win32-vc8-release:sip_auth_parser.obj
 0002:000042ec       _pjsip_STALE_STR           004372ec     pjsip-core-i386-win32-vc8-release:sip_auth_parser.obj
 0002:000042f4       _pjsip_QOP_STR             004372f4     pjsip-core-i386-win32-vc8-release:sip_auth_parser.obj
 0002:000042fc       _pjsip_CNONCE_STR          004372fc     pjsip-core-i386-win32-vc8-release:sip_auth_parser.obj
 0002:00004304       _pjsip_OPAQUE_STR          00437304     pjsip-core-i386-win32-vc8-release:sip_auth_parser.obj
 0002:0000430c       _pjsip_NC_STR              0043730c     pjsip-core-i386-win32-vc8-release:sip_auth_parser.obj
 0002:00004314       _pjsip_TRUE_STR            00437314     pjsip-core-i386-win32-vc8-release:sip_auth_parser.obj
 0002:0000431c       _pjsip_QUOTED_TRUE_STR     0043731c     pjsip-core-i386-win32-vc8-release:sip_auth_parser.obj
 0002:00004324       _pjsip_FALSE_STR           00437324     pjsip-core-i386-win32-vc8-release:sip_auth_parser.obj
 0002:0000432c       _pjsip_QUOTED_FALSE_STR    0043732c     pjsip-core-i386-win32-vc8-release:sip_auth_parser.obj
 0002:00004334       _pjsip_DIGEST_STR          00437334     pjsip-core-i386-win32-vc8-release:sip_auth_parser.obj
 0002:0000433c       _pjsip_QUOTED_DIGEST_STR   0043733c     pjsip-core-i386-win32-vc8-release:sip_auth_parser.obj
 0002:00004344       _pjsip_PGP_STR             00437344     pjsip-core-i386-win32-vc8-release:sip_auth_parser.obj
 0002:0000434c       _pjsip_QUOTED_PGP_STR      0043734c     pjsip-core-i386-win32-vc8-release:sip_auth_parser.obj
 0002:00004354       _pjsip_MD5_STR             00437354     pjsip-core-i386-win32-vc8-release:sip_auth_parser.obj
 0002:0000435c       _pjsip_QUOTED_MD5_STR      0043735c     pjsip-core-i386-win32-vc8-release:sip_auth_parser.obj
 0002:00004364       _pjsip_AUTH_STR            00437364     pjsip-core-i386-win32-vc8-release:sip_auth_parser.obj
 0002:0000436c       _pjsip_QUOTED_AUTH_STR     0043736c     pjsip-core-i386-win32-vc8-release:sip_auth_parser.obj
 0002:00004374       ??_C@_05EBCAJOC@?0?5nc?$DN?$AA@ 00437374     pjsip-core-i386-win32-vc8-release:sip_auth_msg.obj
 0002:0000437c       ??_C@_06PEMMHIJL@?0?5qop?$DN?$AA@ 0043737c     pjsip-core-i386-win32-vc8-release:sip_auth_msg.obj
 0002:00004384       ??_C@_09FBEJJABD@?0?5opaque?$DN?$AA@ 00437384     pjsip-core-i386-win32-vc8-release:sip_auth_msg.obj
 0002:00004390       ??_C@_09JMMPALKP@?0?5cnonce?$DN?$AA@ 00437390     pjsip-core-i386-win32-vc8-release:sip_auth_msg.obj
 0002:0000439c       ??_C@_0N@CGBNHFEJ@?0?5algorithm?$DN?$AA@ 0043739c     pjsip-core-i386-win32-vc8-release:sip_auth_msg.obj
 0002:000043ac       ??_C@_0M@LHKMMNIM@?0?5response?$DN?$AA@ 004373ac     pjsip-core-i386-win32-vc8-release:sip_auth_msg.obj
 0002:000043b8       ??_C@_06LAMIMJOG@?0?5uri?$DN?$AA@ 004373b8     pjsip-core-i386-win32-vc8-release:sip_auth_msg.obj
 0002:000043c0       ??_C@_08INALKCDD@?0?5nonce?$DN?$AA@ 004373c0     pjsip-core-i386-win32-vc8-release:sip_auth_msg.obj
 0002:000043cc       ??_C@_08FIMOKBNA@?0?5realm?$DN?$AA@ 004373cc     pjsip-core-i386-win32-vc8-release:sip_auth_msg.obj
 0002:000043d8       ??_C@_09FNNDBHOE@username?$DN?$AA@ 004373d8     pjsip-core-i386-win32-vc8-release:sip_auth_msg.obj
 0002:000043e4       ??_C@_03NHCDCECM@pgp?$AA@  004373e4     pjsip-core-i386-win32-vc8-release:sip_auth_msg.obj
 0002:000043e8       ??_C@_05KHLNJFNF@?0qop?$DN?$AA@ 004373e8     pjsip-core-i386-win32-vc8-release:sip_auth_msg.obj
 0002:000043f0       ??_C@_0M@HOHCEKCL@?0algorithm?$DN?$AA@ 004373f0     pjsip-core-i386-win32-vc8-release:sip_auth_msg.obj
 0002:000043fc       ??_C@_07IIGBIFNN@?0stale?$DN?$AA@ 004373fc     pjsip-core-i386-win32-vc8-release:sip_auth_msg.obj
 0002:00004404       ??_C@_08OHJPPMIB@?0opaque?$DN?$AA@ 00437404     pjsip-core-i386-win32-vc8-release:sip_auth_msg.obj
 0002:00004410       ??_C@_07DNEKANAM@?0nonce?$DN?$AA@ 00437410     pjsip-core-i386-win32-vc8-release:sip_auth_msg.obj
 0002:00004418       ??_C@_08CKNLFMMP@?0domain?$DN?$AA@ 00437418     pjsip-core-i386-win32-vc8-release:sip_auth_msg.obj
 0002:00004424       ??_C@_07LPCABLKA@?5realm?$DN?$AA@ 00437424     pjsip-core-i386-win32-vc8-release:sip_auth_msg.obj
 0002:0000442c       ??_C@_08MPIAKENM@RTP?1SAVP?$AA@ 0043742c     pjmedia-i386-win32-vc8-release:sdp.obj
 0002:00004438       ??_C@_07OEHJJJKF@RTP?1AVP?$AA@ 00437438     pjmedia-i386-win32-vc8-release:sdp.obj
 0002:00004450       ??_C@_0BC@KMLOGCBL@?$CB?$CD$?$CF?$CG?8?$CK?$CL?9?4?$FO_?$GA?$HL?$HM?$HN?$HO?$AA@ 00437450     pjmedia-i386-win32-vc8-release:sdp.obj
 0002:00004464       ??_C@_04JKCEBMKL@fmtp?$AA@ 00437464     pjmedia-i386-win32-vc8-release:sdp.obj
 0002:0000446c       ??_C@_06NPGDLJKE@rtpmap?$AA@ 0043746c     pjmedia-i386-win32-vc8-release:sdp.obj
 0002:00004474       ??_C@_0BD@NGNJPLJA@c?$DN?$CF?4?$CKs?5?$CF?4?$CKs?5?$CF?4?$CKs?$AN?6?$AA@ 00437474     pjmedia-i386-win32-vc8-release:sdp.obj
 0002:00004488       ??_C@_05MIOLEPMP@v?$DN0?$AN?6?$AA@ 00437488     pjmedia-i386-win32-vc8-release:sdp.obj
 0002:00004490       ??_C@_05PGDJPCOI@?1?5?7?$AN?6?$AA@ 00437490     pjmedia-i386-win32-vc8-release:sdp.obj
 0002:00004498       ??_C@_04HHCDBDLF@?5?7?$AN?6?$AA@ 00437498     pjmedia-i386-win32-vc8-release:sdp.obj
 0002:000044a0       ??_C@_08LMCBNPPN@sendrecv?$AA@ 004374a0     pjmedia-i386-win32-vc8-release:sdp.obj
 0002:000044ac       ??_C@_08EHCGIGCO@recvonly?$AA@ 004374ac     pjmedia-i386-win32-vc8-release:sdp.obj
 0002:000044b8       ??_C@_08HPJEFADN@sendonly?$AA@ 004374b8     pjmedia-i386-win32-vc8-release:sdp.obj
 0002:000044c4       ??_C@_08INHMCBAE@inactive?$AA@ 004374c4     pjmedia-i386-win32-vc8-release:sdp.obj
 0002:000044d0       ??_C@_03NNAHIIJB@IP6?$AA@  004374d0     pjmedia-i386-win32-vc8-release:sdp.obj
 0002:000044d4       ??_C@_03OPDBOKBD@IP4?$AA@  004374d4     pjmedia-i386-win32-vc8-release:sdp.obj
 0002:000044d8       ??_C@_02BBAPPCCJ@IN?$AA@   004374d8     pjmedia-i386-win32-vc8-release:sdp.obj
 0002:000044dc       ??_C@_05LIAFADKM@sdp?4c?$AA@ 004374dc     pjmedia-i386-win32-vc8-release:sdp.obj
 0002:000044e4       ??_C@_0DG@FMMLOIKL@Error?5adding?5SDP?5media?5format?5?$CF?4@ 004374e4     pjmedia-i386-win32-vc8-release:sdp.obj
 0002:0000451c       ??_C@_0CI@CAFHMKHI@Error?5parsing?5SDP?5in?5line?5?$CFd?5col@ 0043751c     pjmedia-i386-win32-vc8-release:sdp.obj
 0002:00004544       ??_C@_0DF@FBLBINKO@Error?5adding?5session?5bandwidth?5i@ 00437544     pjmedia-i386-win32-vc8-release:sdp.obj
 0002:0000457c       ??_C@_0DD@FDBIEIFP@Error?5adding?5media?5bandwidth?5inf@ 0043757c     pjmedia-i386-win32-vc8-release:sdp.obj
 0002:000045b0       ??_C@_0CF@NCOGEPJF@Error?5adding?5media?0?5media?5is?5ign@ 004375b0     pjmedia-i386-win32-vc8-release:sdp.obj
 0002:000045d8       ??_C@_0DF@GDECOCN@Error?5adding?5session?5attribute?0?5@ 004375d8     pjmedia-i386-win32-vc8-release:sdp.obj
 0002:00004610       ??_C@_0DD@EJNOLNM@Error?5adding?5media?5attribute?0?5at@ 00437610     pjmedia-i386-win32-vc8-release:sdp.obj
 0002:00004644       ??_C@_0L@KPLLHEOI@STATE_DONE?$AA@ 00437644     pjmedia-i386-win32-vc8-release:sdp_neg.obj
 0002:00004650       ??_C@_0BA@GHLPEJJC@STATE_WAIT_NEGO?$AA@ 00437650     pjmedia-i386-win32-vc8-release:sdp_neg.obj
 0002:00004660       ??_C@_0BD@EIDNGBFC@STATE_REMOTE_OFFER?$AA@ 00437660     pjmedia-i386-win32-vc8-release:sdp_neg.obj
 0002:00004674       ??_C@_0BC@LOEMBHAD@STATE_LOCAL_OFFER?$AA@ 00437674     pjmedia-i386-win32-vc8-release:sdp_neg.obj
 0002:00004688       ??_C@_0L@IOJLEJF@STATE_NULL?$AA@ 00437688     pjmedia-i386-win32-vc8-release:sdp_neg.obj
 0002:00004694       ??_C@_0M@GGDBIFHF@?$DM?$DPUNKNOWN?$DP?$DO?$AA@ 00437694     pjmedia-i386-win32-vc8-release:sdp_neg.obj
 0002:000046a0       ??_C@_09PFCHIMEP@127?40?40?41?$AA@ 004376a0     pjmedia-i386-win32-vc8-release:sdp_neg.obj
 0002:000046ac       ??_C@_0BA@LLGGBELL@telephone?9event?$AA@ 004376ac     pjmedia-i386-win32-vc8-release:sdp_neg.obj
 0002:000046bc       ??_C@_02BAABKJLB@?9?9?$AA@ 004376bc     pjlib-util-i386-win32-vc8-release:getopt.obj
 0002:000046c0       ??_C@_0CF@CKMLJLLP@Connection?5lost?5?$CIPJ_CLI_ETELNETL@ 004376c0     pjlib-util-i386-win32-vc8-release:errno.obj
 0002:000046e8       ??_C@_0CE@LHHCBFML@Invalid?5XML?5format?5?$CIPJ_CLI_EBADX@ 004376e8     pjlib-util-i386-win32-vc8-release:errno.obj
 0002:0000470c       ??_C@_0CK@MKOACJP@Command?5id?5already?5exists?5?$CIPJ_CL@ 0043770c     pjlib-util-i386-win32-vc8-release:errno.obj
 0002:00004738       ??_C@_0CO@OOEOBCH@Command?5name?5already?5exists?5?$CIPJ_@ 00437738     pjlib-util-i386-win32-vc8-release:errno.obj
 0002:00004768       ??_C@_0CC@NLPGOLED@Invalid?5argument?5?$CIPJ_CLI_EINVARG@ 00437768     pjlib-util-i386-win32-vc8-release:errno.obj
 0002:0000478c       ??_C@_0CJ@ECODGDHL@Too?5many?5arguments?5?$CIPJ_CLI_ETOOM@ 0043778c     pjlib-util-i386-win32-vc8-release:errno.obj
 0002:000047b8       ??_C@_0CG@LEDMCEME@Missing?5argument?5?$CIPJ_CLI_EMISSIN@ 004377b8     pjlib-util-i386-win32-vc8-release:errno.obj
 0002:000047e0       ??_C@_0CE@DHMMOEGP@Exit?5current?5session?5?$CIPJ_CLI_EEX@ 004377e0     pjlib-util-i386-win32-vc8-release:errno.obj
 0002:00004804       ??_C@_0CH@JNBFBBKA@Connection?5lost?5?$CIPJLIB_UTIL_EHTT@ 00437804     pjlib-util-i386-win32-vc8-release:errno.obj
 0002:0000482c       ??_C@_0CN@MKMAKFDH@Insufficient?5buffer?5?$CIPJLIB_UTIL_@ 0043782c     pjlib-util-i386-win32-vc8-release:errno.obj
 0002:0000485c       ??_C@_0DN@CABCKELB@Incomplete?5response?5header?5recei@ 0043785c     pjlib-util-i386-win32-vc8-release:errno.obj
 0002:0000489c       ??_C@_0DB@BDFJPAOA@Invalid?5URL?5port?5number?5?$CIPJLIB_U@ 0043789c     pjlib-util-i386-win32-vc8-release:errno.obj
 0002:000048d0       ??_C@_0CL@GOOAEBLJ@Invalid?5URL?5format?5?$CIPJLIB_UTIL_E@ 004378d0     pjlib-util-i386-win32-vc8-release:errno.obj
 0002:00004900       ??_C@_0EF@HAPLEMIK@STUN?5transaction?5terminates?5with@ 00437900     pjlib-util-i386-win32-vc8-release:errno.obj
 0002:00004948       ??_C@_0EB@FGOGNHPO@Missing?1stale?5STUN?5NONCE?5attribu@ 00437948     pjlib-util-i386-win32-vc8-release:errno.obj
 0002:0000498c       ??_C@_0DH@MMHMOPBG@Missing?5STUN?5REALM?5attribute?5?$CIPJ@ 0043798c     pjlib-util-i386-win32-vc8-release:errno.obj
 0002:000049c4       ??_C@_0DJ@BCFNCGF@Found?5duplicate?5STUN?5attribute?5?$CI@ 004379c4     pjlib-util-i386-win32-vc8-release:errno.obj
 0002:00004a00       ??_C@_0EK@LMHKLKC@Missing?1invalid?5STUN?5MESSAGE?9INT@ 00437a00     pjlib-util-i386-win32-vc8-release:errno.obj
 0002:00004a4c       ??_C@_0DN@JLMAJAKN@Missing?5STUN?5USERNAME?5attribute?5@ 00437a4c     pjlib-util-i386-win32-vc8-release:errno.obj
 0002:00004a90       ??_C@_0ED@CNMDGMPD@Found?5STUN?5attribute?5after?5FINGE@ 00437a90     pjlib-util-i386-win32-vc8-release:errno.obj
 0002:00004ad8       ??_C@_0FA@DIAPLEFD@Found?5non?9FINGERPRINT?5attr?4?5afte@ 00437ad8     pjlib-util-i386-win32-vc8-release:errno.obj
 0002:00004b28       ??_C@_0EI@BNLBFIKH@Unable?5to?5find?5STUN?5handler?5for?5@ 00437b28     pjlib-util-i386-win32-vc8-release:errno.obj
 0002:00004b70       ??_C@_0DJ@DDEJFFIL@STUN?5transaction?5ID?5mismatch?5?$CIPJ@ 00437b70     pjlib-util-i386-win32-vc8-release:errno.obj
 0002:00004bac       ??_C@_0DO@LEKPMIHP@Expecting?5STUN?5response?5message?5@ 00437bac     pjlib-util-i386-win32-vc8-release:errno.obj
 0002:00004bf0       ??_C@_0EA@NAKPKGDE@STUN?5IPv6?5attribute?5not?5supporte@ 00437bf0     pjlib-util-i386-win32-vc8-release:errno.obj
 0002:00004c30       ??_C@_0DP@PDBNFLFH@Invalid?5STUN?5socket?5address?5leng@ 00437c30     pjlib-util-i386-win32-vc8-release:errno.obj
 0002:00004c70       ??_C@_0DF@KMIPDCMM@Unknown?5STUN?5attribute?5?$CIPJLIB_UT@ 00437c70     pjlib-util-i386-win32-vc8-release:errno.obj
 0002:00004ca8       ??_C@_0DH@EMGNELGL@Too?5many?5STUN?5attributes?5?$CIPJLIB_@ 00437ca8     pjlib-util-i386-win32-vc8-release:errno.obj
 0002:00004ce0       ??_C@_0EB@GKEHOPAE@DNS?5?$CCThe?5zone?5specified?5is?5not?5a@ 00437ce0     pjlib-util-i386-win32-vc8-release:errno.obj
 0002:00004d24       ??_C@_0CP@HJODAHHO@DNS?5?$CCNot?5authorized?$CC?5?$CIPJLIB_UTIL@ 00437d24     pjlib-util-i386-win32-vc8-release:errno.obj
 0002:00004d58       ??_C@_0EG@OMHMBNML@DNS?5?$CCThe?5RRset?5?$CIname?0?5type?$CJ?5does@ 00437d58     pjlib-util-i386-win32-vc8-release:errno.obj
 0002:00004da0       ??_C@_0DO@OIIHMCI@DNS?5?$CCThe?5RRset?5?$CIname?0?5type?$CJ?5exis@ 00437da0     pjlib-util-i386-win32-vc8-release:errno.obj
 0002:00004de0       ??_C@_0DB@PFAMNHPJ@DNS?5?$CCThe?5name?5exists?$CC?5?$CIPJLIB_UTI@ 00437de0     pjlib-util-i386-win32-vc8-release:errno.obj
 0002:00004e14       ??_C@_0CI@LDMKLLKJ@DNS?5?$CCRefused?$CC?5?$CIPJLIB_UTIL_EDNS_R@ 00437e14     pjlib-util-i386-win32-vc8-release:errno.obj
 0002:00004e3c       ??_C@_0DA@DIMDKHPM@DNS?5?$CCNot?5Implemented?$CC?5?$CIPJLIB_UTI@ 00437e3c     pjlib-util-i386-win32-vc8-release:errno.obj
 0002:00004e6c       ??_C@_0CM@CNNJNBCA@DNS?5?$CCName?5Error?$CC?5?$CIPJLIB_UTIL_EDN@ 00437e6c     pjlib-util-i386-win32-vc8-release:errno.obj
 0002:00004e98       ??_C@_0DA@NBPIIAHM@DNS?5?$CCServer?5failure?$CC?5?$CIPJLIB_UTIL@ 00437e98     pjlib-util-i386-win32-vc8-release:errno.obj
 0002:00004ec8       ??_C@_0CN@BCAAPMPM@DNS?5?$CCFormat?5error?$CC?5?$CIPJLIB_UTIL_E@ 00437ec8     pjlib-util-i386-win32-vc8-release:errno.obj
 0002:00004ef8       ??_C@_0CN@DEFBDJKF@Invalid?5DNS?5answer?5?$CIPJLIB_UTIL_E@ 00437ef8     pjlib-util-i386-win32-vc8-release:errno.obj
 0002:00004f28       ??_C@_0EC@HJFBNLFC@No?5answer?5record?5in?5the?5DNS?5resp@ 00437f28     pjlib-util-i386-win32-vc8-release:errno.obj
 0002:00004f6c       ??_C@_0DH@PHJBLCKD@No?5working?5DNS?5nameserver?5?$CIPJLIB@ 00437f6c     pjlib-util-i386-win32-vc8-release:errno.obj
 0002:00004fa4       ??_C@_0DH@LFJGDOHB@No?5nameserver?5is?5in?5DNS?5resolver@ 00437fa4     pjlib-util-i386-win32-vc8-release:errno.obj
 0002:00004fdc       ??_C@_0DJ@NBOGGJL@Invalid?5DNS?5nameserver?5address?5?$CI@ 00437fdc     pjlib-util-i386-win32-vc8-release:errno.obj
 0002:00005018       ??_C@_0DE@FIPILDGP@Invalid?5DNS?5name?5pointer?5?$CIPJLIB_@ 00438018     pjlib-util-i386-win32-vc8-release:errno.obj
 0002:0000504c       ??_C@_0CL@OCFDFFNM@Invalid?5DNS?5class?5?$CIPJLIB_UTIL_ED@ 0043804c     pjlib-util-i386-win32-vc8-release:errno.obj
 0002:00005078       ??_C@_0DC@JFKHADAC@Invalid?5DNS?5packet?5length?5?$CIPJLIB@ 00438078     pjlib-util-i386-win32-vc8-release:errno.obj
 0002:000050b0       ??_C@_0EC@KJLJANIE@DNS?5query?5packet?5buffer?5is?5too?5s@ 004380b0     pjlib-util-i386-win32-vc8-release:errno.obj
 0002:000050f4       ??_C@_0CL@IPLFEOJE@Invalid?5JSON?5document?5?$CIPJLIB_UTI@ 004380f4     pjlib-util-i386-win32-vc8-release:errno.obj
 0002:00005120       ??_C@_0CI@OKGDIDF@Invalid?5XML?5message?5?$CIPJLIB_UTIL_@ 00438120     pjlib-util-i386-win32-vc8-release:errno.obj
 0002:00005148       ??_C@_0DK@OILEGGA@Symetric?5NAT?5detected?5by?5STUN?5?$CIP@ 00438148     pjlib-util-i386-win32-vc8-release:errno.obj
 0002:00005188       ??_C@_0ED@MIOBPJDH@Received?5no?5response?5from?5STUN?5s@ 00438188     pjlib-util-i386-win32-vc8-release:errno.obj
 0002:000051cc       ??_C@_0DJ@BDPKKDEL@No?5STUN?5mapped?5address?5attribute@ 004381cc     pjlib-util-i386-win32-vc8-release:errno.obj
 0002:00005208       ??_C@_0DM@JJJKHKHH@Received?5STUN?5error?5attribute?5?$CIP@ 00438208     pjlib-util-i386-win32-vc8-release:errno.obj
 0002:00005248       ??_C@_0EE@OMBAKMPD@No?5STUN?5binding?5response?5in?5the?5@ 00438248     pjlib-util-i386-win32-vc8-release:errno.obj
 0002:0000528c       ??_C@_0DL@JFEBBJAB@Invalid?5STUN?5server?1socket?5index@ 0043828c     pjlib-util-i386-win32-vc8-release:errno.obj
 0002:000052c8       ??_C@_0DJ@GEFJCPHI@Invalid?5STUN?5attribute?5type?5?$CIPJL@ 004382c8     pjlib-util-i386-win32-vc8-release:errno.obj
 0002:00005304       ??_C@_0DI@MNKBLDCO@STUN?5attribute?5length?5error?5?$CIPJL@ 00438304     pjlib-util-i386-win32-vc8-release:errno.obj
 0002:0000533c       ??_C@_0DH@BGLGMNML@Invalid?5STUN?5message?5length?5?$CIPJL@ 0043833c     pjlib-util-i386-win32-vc8-release:errno.obj
 0002:00005374       ??_C@_0DG@MLIAHJMC@Unknown?5STUN?5message?5type?5?$CIPJLIB@ 00438374     pjlib-util-i386-win32-vc8-release:errno.obj
 0002:000053ac       ??_C@_0DI@FPKNFLPC@Unable?5to?5resolve?5STUN?5server?5?$CIP@ 004383ac     pjlib-util-i386-win32-vc8-release:errno.obj
 0002:000055c8       ??_C@_0BM@LDLEGOFO@Unknown?5pjlib?9util?5error?5?$CFd?$AA@ 004385c8     pjlib-util-i386-win32-vc8-release:errno.obj
 0002:000055e4       ??_C@_0BM@HBCIEFJJ@?4?4?2src?2pjlib?9util?2scanner?4c?$AA@ 004385e4     pjlib-util-i386-win32-vc8-release:scanner.obj
 0002:00005600       ??_C@_03KHCCLPOB@Bad?$AA@  00438600     pjlib-util-i386-win32-vc8-release:resolver.obj
 0002:00005604       ??_C@_06MAFFGDO@Active?$AA@ 00438604     pjlib-util-i386-win32-vc8-release:resolver.obj
 0002:0000560c       ??_C@_07IAIHCIDD@Probing?$AA@ 0043860c     pjlib-util-i386-win32-vc8-release:resolver.obj
 0002:00005614       ??_C@_0CJ@MMDCPKPE@Nameserver?5?$CFs?3?$CFd?5state?5changed?5?$CF@ 00438614     pjlib-util-i386-win32-vc8-release:resolver.obj
 0002:00005640       ??_C@_0DC@PBGKNNLN@?$CFs?5?$CFd?5bytes?5to?5NS?5?$CFd?5?$CI?$CFs?3?$CFd?$CJ?3?5DN@ 00438640     pjlib-util-i386-win32-vc8-release:resolver.obj
 0002:00005674       ??_C@_0BA@JFAGDHFD@Re?9transmitting?$AA@ 00438674     pjlib-util-i386-win32-vc8-release:resolver.obj
 0002:00005684       ??_C@_0N@IBGJGPJN@Transmitting?$AA@ 00438684     pjlib-util-i386-win32-vc8-release:resolver.obj
 0002:00005694       ??_C@_0DC@GOFLGJND@Socket?5busy?5in?5transmitting?5DNS?5@ 00438694     pjlib-util-i386-win32-vc8-release:resolver.obj
 0002:000056c8       ??_C@_0BH@PPEBBIFJ@?0?5will?5try?5again?5later?$AA@ 004386c8     pjlib-util-i386-win32-vc8-release:resolver.obj
 0002:000056e0       ??_C@_0DE@LLACOPGB@Picked?5up?5DNS?5?$CFs?5record?5for?5?$CF?4?$CKs@ 004386e0     pjlib-util-i386-win32-vc8-release:resolver.obj
 0002:00005714       ??_C@_0BP@GLADIPED@Error?5transmitting?5request?3?5?$CFs?$AA@ 00438714     pjlib-util-i386-win32-vc8-release:resolver.obj
 0002:00005734       ??_C@_0BM@MJBLDIAG@?5?$CFd?3?5SRV?5?$CFd?5?$CFd?5?$CFd?5?$CF?4?$CKs?5?$CI?$CFs?$CJ?$AA@ 00438734     pjlib-util-i386-win32-vc8-release:srv_resolver.obj
 0002:00005750       ??_C@_0EE@LPMFAMKM@SRV?5query_job?5for?5?$CF?4?$CKs?5completed@ 00438750     pjlib-util-i386-win32-vc8-release:srv_resolver.obj
 0002:00005794       ??_C@_0CJ@IGNPBKGN@Could?5not?5find?5SRV?5record?5in?5DNS@ 00438794     pjlib-util-i386-win32-vc8-release:srv_resolver.obj
 0002:000057c0       ??_C@_0BG@OENDJHLB@Hostname?5is?5too?5long?$CB?$AA@ 004387c0     pjlib-util-i386-win32-vc8-release:srv_resolver.obj
 0002:000057d8       ??_C@_0CL@ICCMMEFF@Received?5non?5SRV?5answer?5for?5SRV?5@ 004387d8     pjlib-util-i386-win32-vc8-release:srv_resolver.obj
 0002:00005804       ??_C@_0CI@IBPJGCBL@Starting?5async?5DNS?5A?5query_job?5f@ 00438804     pjlib-util-i386-win32-vc8-release:srv_resolver.obj
 0002:0000582c       ??_C@_0DH@GBMACLIM@DNS?5?$CFs?5record?5resolution?5error?5f@ 0043882c     pjlib-util-i386-win32-vc8-release:srv_resolver.obj
 0002:00005864       ??_C@_0DF@NMOAKAGH@Server?5resolution?5complete?0?5?$CFd?5s@ 00438864     pjlib-util-i386-win32-vc8-release:srv_resolver.obj
 0002:0000589c       ??_C@_0CE@INBOJAA@DNS?5?$CFs?5record?5resolution?5failed?3@ 0043889c     pjlib-util-i386-win32-vc8-release:srv_resolver.obj
 0002:000058c0       ??_C@_0CM@GNPJLEOH@Bad?5address?5family?5in?5DNS?5?$CFs?5que@ 004388c0     pjlib-util-i386-win32-vc8-release:srv_resolver.obj
 0002:000058ec       ??_C@_0BE@BLHHGJAP@DNS?5?$CFs?5for?5?$CF?4?$CKs?3?5?$CFs?$AA@ 004388ec     pjlib-util-i386-win32-vc8-release:srv_resolver.obj
 0002:00005900       ??_C@_04OHNMNPPA@AAAA?$AA@ 00438900     pjlib-util-i386-win32-vc8-release:srv_resolver.obj
 0002:00005908       ??_C@_01FHEEJDEE@A?$AA@    00438908     pjlib-util-i386-win32-vc8-release:srv_resolver.obj
 0002:00005910       ??_C@_0EM@PBBBMOKP@DNS?5SRV?5resolution?5failed?5for?5?$CF?4@ 00438910     pjlib-util-i386-win32-vc8-release:srv_resolver.obj
 0002:0000595c       ??_C@_0CH@COCLGFLO@DNS?5SRV?5resolution?5failed?5for?5?$CF?4@ 0043895c     pjlib-util-i386-win32-vc8-release:srv_resolver.obj
 0002:00005984       ??_C@_0DA@GGGKMBOI@Starting?5async?5DNS?5?$CFs?5query_job?3@ 00438984     pjlib-util-i386-win32-vc8-release:srv_resolver.obj
 0002:000059b4       ??_C@_01LFCBOECM@?4?$AA@   004389b4     pjlib-util-i386-win32-vc8-release:srv_resolver.obj
 0002:000059b8       ??_C@_09ONJBBFFA@?$CIUnknown?$CJ?$AA@ 004389b8     pjlib-util-i386-win32-vc8-release:dns.obj
 0002:000059c4       ??_C@_05DGMJPCKB@NAPTR?$AA@ 004389c4     pjlib-util-i386-win32-vc8-release:dns.obj
 0002:000059cc       ??_C@_03CGKMFPEO@TXT?$AA@  004389cc     pjlib-util-i386-win32-vc8-release:dns.obj
 0002:000059d0       ??_C@_02KJOOPCC@MX?$AA@    004389d0     pjlib-util-i386-win32-vc8-release:dns.obj
 0002:000059d4       ??_C@_03PGIOJGPL@PTR?$AA@  004389d4     pjlib-util-i386-win32-vc8-release:dns.obj
 0002:000059d8       ??_C@_05PGNGFKDN@CNAME?$AA@ 004389d8     pjlib-util-i386-win32-vc8-release:dns.obj
 0002:000059e0       ??_C@_02OLCMIILA@NS?$AA@   004389e0     pjlib-util-i386-win32-vc8-release:dns.obj
 0002:000059e4       ??_C@_03IENKIAKD@SRV?$AA@  004389e4     pjlib-util-i386-win32-vc8-release:dns.obj
 0002:000059e8       ??_C@_0BB@PKFOFEEC@?4?4?2src?2pj?2pool?4c?$AA@ 004389e8     pjlib-i386-win32-vc8-release:pool.obj
 0002:000059fc       ??_C@_03FEFJNEK@Sat?$AA@   004389fc     pjlib-i386-win32-vc8-release:log.obj
 0002:00005a00       ??_C@_03IDIOELNC@Fri?$AA@  00438a00     pjlib-i386-win32-vc8-release:log.obj
 0002:00005a04       ??_C@_03IOFIKPDN@Thu?$AA@  00438a04     pjlib-i386-win32-vc8-release:log.obj
 0002:00005a08       ??_C@_03MHOMLAJA@Wed?$AA@  00438a08     pjlib-i386-win32-vc8-release:log.obj
 0002:00005a0c       ??_C@_03NAGEINEP@Tue?$AA@  00438a0c     pjlib-i386-win32-vc8-release:log.obj
 0002:00005a10       ??_C@_03PDAGKDH@Mon?$AA@   00438a10     pjlib-i386-win32-vc8-release:log.obj
 0002:00005a14       ??_C@_03KOEHGMDN@Sun?$AA@  00438a14     pjlib-i386-win32-vc8-release:log.obj
 0002:00005a18       ??_C@_06HGKAKJPG@DETRC?3?$AA@ 00438a18     pjlib-i386-win32-vc8-release:log.obj
 0002:00005a20       ??_C@_06ELIFFDKB@TRACE?3?$AA@ 00438a20     pjlib-i386-win32-vc8-release:log.obj
 0002:00005a28       ??_C@_06DNOFLLB@DEBUG?3?$AA@ 00438a28     pjlib-i386-win32-vc8-release:log.obj
 0002:00005a30       ??_C@_06ICKKLHPE@?5INFO?3?$AA@ 00438a30     pjlib-i386-win32-vc8-release:log.obj
 0002:00005a38       ??_C@_06OHJPOJDB@?5WARN?3?$AA@ 00438a38     pjlib-i386-win32-vc8-release:log.obj
 0002:00005a40       ??_C@_06PONDCDME@ERROR?3?$AA@ 00438a40     pjlib-i386-win32-vc8-release:log.obj
 0002:00005a48       ??_C@_06DDFOEFIF@FATAL?3?$AA@ 00438a48     pjlib-i386-win32-vc8-release:log.obj
 0002:00005a50       ??_C@_0BO@BGMDCDKP@?$DMlogging?5error?3?5msg?5too?5long?$DO?$AA@ 00438a50     pjlib-i386-win32-vc8-release:log.obj
 0002:00005a70       ??_C@_0BA@CLLJDBF@?4?4?2src?2pj?2log?4c?$AA@ 00438a70     pjlib-i386-win32-vc8-release:log.obj
 0002:00005a80       ??_C@_0CI@LBHALONI@Socket?5is?5in?5bad?5state?5?$CIPJ_ESOCK@ 00438a80     pjlib-i386-win32-vc8-release:errno.obj
 0002:00005aa8       ??_C@_0CD@PDGCJOJH@Object?5no?5longer?5exists?5?$CIPJ_EGON@ 00438aa8     pjlib-i386-win32-vc8-release:errno.obj
 0002:00005acc       ??_C@_0CK@DJAHHNOI@Unsupported?5address?5family?5?$CIPJ_E@ 00438acc     pjlib-i386-win32-vc8-release:errno.obj
 0002:00005af8       ??_C@_0CH@OGOOBJBE@IPv6?5is?5not?5supported?5?$CIPJ_EIPV6N@ 00438af8     pjlib-i386-win32-vc8-release:errno.obj
 0002:00005b20       ??_C@_0BG@NBDJGAFI@Ignored?5?$CIPJ_EIGNORED?$CJ?$AA@ 00438b20     pjlib-i386-win32-vc8-release:errno.obj
 0002:00005b38       ??_C@_0CB@MGGLJMNO@Size?5is?5too?5short?5?$CIPJ_ETOOSMALL?$CJ@ 00438b38     pjlib-i386-win32-vc8-release:errno.obj
 0002:00005b5c       ??_C@_0DB@FDCHLEID@gethostbyname?$CI?$CJ?5has?5returned?5err@ 00438b5c     pjlib-i386-win32-vc8-release:errno.obj
 0002:00005b90       ??_C@_0BN@PCCNBFLN@Size?5is?5too?5big?5?$CIPJ_ETOOBIG?$CJ?$AA@ 00438b90     pjlib-i386-win32-vc8-release:errno.obj
 0002:00005bb0       ??_C@_0BG@GMBDFNLN@End?5of?5file?5?$CIPJ_EEOF?$CJ?$AA@ 00438bb0     pjlib-i386-win32-vc8-release:errno.obj
 0002:00005bc8       ??_C@_0CD@LODOFNLC@Object?5already?5exists?5?$CIPJ_EEXIST@ 00438bc8     pjlib-i386-win32-vc8-release:errno.obj
 0002:00005bec       ??_C@_0CE@KDDMJLGF@Operation?5cancelled?5?$CIPJ_ECANCELL@ 00438bec     pjlib-i386-win32-vc8-release:errno.obj
 0002:00005c10       ??_C@_0CC@OEEEEEML@Invalid?5operation?5?$CIPJ_EINVALIDOP@ 00438c10     pjlib-i386-win32-vc8-release:errno.obj
 0002:00005c34       ??_C@_0CP@BAIBJOJE@Option?1operation?5is?5not?5supporte@ 00438c34     pjlib-i386-win32-vc8-release:errno.obj
 0002:00005c64       ??_C@_0BK@OMPILOH@Object?5is?5busy?5?$CIPJ_EBUSY?$CJ?$AA@ 00438c64     pjlib-i386-win32-vc8-release:errno.obj
 0002:00005c80       ??_C@_0DF@MIFNAIHL@Too?5many?5objects?5of?5the?5specifie@ 00438c80     pjlib-i386-win32-vc8-release:errno.obj
 0002:00005cb8       ??_C@_0CD@JOGIDHPJ@Operation?5timed?5out?5?$CIPJ_ETIMEDOU@ 00438cb8     pjlib-i386-win32-vc8-release:errno.obj
 0002:00005cdc       ??_C@_0BI@HHGDCAID@BUG?5DETECTED?$CB?5?$CIPJ_EBUG?$CJ?$AA@ 00438cdc     pjlib-i386-win32-vc8-release:errno.obj
 0002:00005cf4       ??_C@_0BO@GOLCMJKK@Not?5enough?5memory?5?$CIPJ_ENOMEM?$CJ?$AA@ 00438cf4     pjlib-i386-win32-vc8-release:errno.obj
 0002:00005d14       ??_C@_0BJ@JNKLPII@Not?5found?5?$CIPJ_ENOTFOUND?$CJ?$AA@ 00438d14     pjlib-i386-win32-vc8-release:errno.obj
 0002:00005d30       ??_C@_0CA@GJABNEKD@Name?5too?5long?5?$CIPJ_ENAMETOOLONG?$CJ?$AA@ 00438d30     pjlib-i386-win32-vc8-release:errno.obj
 0002:00005d50       ??_C@_0CG@CBCJBJGD@Invalid?5value?5or?5argument?5?$CIPJ_EI@ 00438d50     pjlib-i386-win32-vc8-release:errno.obj
 0002:00005d78       ??_C@_0CO@GABEOAFF@Too?5many?5connecting?5sockets?5?$CIPJ_@ 00438d78     pjlib-i386-win32-vc8-release:errno.obj
 0002:00005da8       ??_C@_0CA@DCLOOJGD@Pending?5operation?5?$CIPJ_EPENDING?$CJ?$AA@ 00438da8     pjlib-i386-win32-vc8-release:errno.obj
 0002:00005dc8       ??_C@_0BM@FLPPOGAG@Unknown?5Error?5?$CIPJ_EUNKNOWN?$CJ?$AA@ 00438dc8     pjlib-i386-win32-vc8-release:errno.obj
 0002:00005ea8       ??_C@_0BH@ONDLFCEA@Unknown?5pjlib?5error?5?$CFd?$AA@ 00438ea8     pjlib-i386-win32-vc8-release:errno.obj
 0002:00005ec0       ??_C@_0BB@BIKLJNJD@Unknown?5error?5?$CFd?$AA@ 00438ec0     pjlib-i386-win32-vc8-release:errno.obj
 0002:00005ed4       ??_C@_07PBILKAFL@Success?$AA@ 00438ed4     pjlib-i386-win32-vc8-release:errno.obj
 0002:00005edc       ??_C@_06DJHOIPC@?$CFs?3?5?$CFs?$AA@ 00438edc     pjlib-i386-win32-vc8-release:errno.obj
 0002:00005ee4       ??_C@_05NAOIJFC@Error?$AA@ 00438ee4     pjlib-i386-win32-vc8-release:errno.obj
 0002:00005eec       ??_C@_0M@IGFPEOLJ@cachingpool?$AA@ 00438eec     pjlib-i386-win32-vc8-release:pool_caching.obj
 0002:00005ef8       ??_C@_0DD@ECGDPCBA@Pool?5is?5not?5released?5by?5applicat@ 00438ef8     pjlib-i386-win32-vc8-release:pool_caching.obj
 0002:00005f2c       ??_C@_0BJ@MJKAJPML@?4?4?2src?2pj?2pool_caching?4c?$AA@ 00438f2c     pjlib-i386-win32-vc8-release:pool_caching.obj
 0002:00005f48       ??_C@_0CB@GKBJPDKG@?5?5Total?5?$CF9d?5of?5?$CF9d?5?$CI?$CFd?5?$CF?$CF?$CJ?5used?$CB@ 00438f48     pjlib-i386-win32-vc8-release:pool_caching.obj
 0002:00005f6c       ??_C@_0CA@MMLIKIEG@?5?5?5?$CF16s?3?5?$CF8d?5of?5?$CF8d?5?$CI?$CFd?$CF?$CF?$CJ?5used?$AA@ 00438f6c     pjlib-i386-win32-vc8-release:pool_caching.obj
 0002:00005f8c       ??_C@_0BM@IDLDGCC@?5?5Dumping?5all?5active?5pools?3?$AA@ 00438f8c     pjlib-i386-win32-vc8-release:pool_caching.obj
 0002:00005fa8       ??_C@_0CN@DOKPIIOH@?5?5?5Capacity?$DN?$CFu?0?5max_capacity?$DN?$CFu?0@ 00438fa8     pjlib-i386-win32-vc8-release:pool_caching.obj
 0002:00005fd8       ??_C@_08COPEICHG@cachpool?$AA@ 00438fd8     pjlib-i386-win32-vc8-release:pool_caching.obj
 0002:00005fe4       ??_C@_0BH@BBPHJKOA@?5Dumping?5caching?5pool?3?$AA@ 00438fe4     pjlib-i386-win32-vc8-release:pool_caching.obj
 0002:00005ffc       ??_C@_05KHEDLION@thr?$CFp?$AA@ 00438ffc     pjlib-i386-win32-vc8-release:os_core_win32.obj
 0002:00006004       ??_C@_0CD@GPHECFNA@Thread?5stack?5max?5usage?$DN?$CFu?5by?5?$CFs?3@ 00439004     pjlib-i386-win32-vc8-release:os_core_win32.obj
 0002:00006028       ??_C@_0BK@BHGJHPMG@?4?4?2src?2pj?2os_core_win32?4c?$AA@ 00439028     pjlib-i386-win32-vc8-release:os_core_win32.obj
 0002:00006044       ??_C@_05EJDHHBFJ@mtx?$CFp?$AA@ 00439044     pjlib-i386-win32-vc8-release:os_core_win32.obj
 0002:0000604c       ??_C@_05EKKMALCN@sem?$CFp?$AA@ 0043904c     pjlib-i386-win32-vc8-release:os_core_win32.obj
 0002:00006054       ??_C@_0BA@FNCACAIG@os_core_win32?4c?$AA@ 00439054     pjlib-i386-win32-vc8-release:os_core_win32.obj
 0002:00006064       ??_C@_0BP@NGEKBPIB@pjlib?5?$CFs?5for?5win32?5initialized?$AA@ 00439064     pjlib-i386-win32-vc8-release:os_core_win32.obj
 0002:00006084       ??_C@_0BA@NGJFHJA@PJLIB?1No?5memory?$AA@ 00439084     pjlib-i386-win32-vc8-release:os_core_win32.obj
 0002:00006094       ??_C@_04IFCNACLH@pj?$CFp?$AA@ 00439094     pjlib-i386-win32-vc8-release:os_core_win32.obj
 0002:0000609c       ??_C@_0BD@ELEDKDKB@?4?4?2src?2pj?2string?4c?$AA@ 0043909c     pjlib-i386-win32-vc8-release:string.obj
 0002:000060b0       ??_C@_0BI@IIPAIKDD@?4?4?2src?2pj?2sock_common?4c?$AA@ 004390b0     pjlib-i386-win32-vc8-release:sock_common.obj
 0002:000060c8       ??_C@_08KJEDNCKC@?$CFs?$CFs?$CFs?$CFs?$AA@ 004390c8     pjlib-i386-win32-vc8-release:sock_common.obj
 0002:000060d4       ??_C@_03HODKBCIO@?3?$CFd?$AA@ 004390d4     pjlib-i386-win32-vc8-release:sock_common.obj
 0002:000060d8       ??_C@_04NFKLOGOF@1?3?31?$AA@ 004390d8     pjlib-i386-win32-vc8-release:sock_common.obj
 0002:000060e0       ??_C@_07EBPGIHEF@1?41?41?41?$AA@ 004390e0     pjlib-i386-win32-vc8-release:sock_common.obj
 0002:000060e8       _PJ_AF_UNSPEC              004390e8     pjlib-i386-win32-vc8-release:sock_bsd.obj
 0002:000060ec       _PJ_AF_UNIX                004390ec     pjlib-i386-win32-vc8-release:sock_bsd.obj
 0002:000060f0       _PJ_AF_INET                004390f0     pjlib-i386-win32-vc8-release:sock_bsd.obj
 0002:000060f4       _PJ_AF_INET6               004390f4     pjlib-i386-win32-vc8-release:sock_bsd.obj
 0002:000060f8       _PJ_AF_PACKET              004390f8     pjlib-i386-win32-vc8-release:sock_bsd.obj
 0002:000060fc       _PJ_AF_IRDA                004390fc     pjlib-i386-win32-vc8-release:sock_bsd.obj
 0002:00006100       _PJ_SOCK_STREAM            00439100     pjlib-i386-win32-vc8-release:sock_bsd.obj
 0002:00006104       _PJ_SOCK_DGRAM             00439104     pjlib-i386-win32-vc8-release:sock_bsd.obj
 0002:00006108       _PJ_SOCK_RAW               00439108     pjlib-i386-win32-vc8-release:sock_bsd.obj
 0002:0000610c       _PJ_SOCK_RDM               0043910c     pjlib-i386-win32-vc8-release:sock_bsd.obj
 0002:00006110       _PJ_SOL_SOCKET             00439110     pjlib-i386-win32-vc8-release:sock_bsd.obj
 0002:00006114       _PJ_SOL_IP                 00439114     pjlib-i386-win32-vc8-release:sock_bsd.obj
 0002:00006118       _PJ_SOL_TCP                00439118     pjlib-i386-win32-vc8-release:sock_bsd.obj
 0002:0000611c       _PJ_SOL_UDP                0043911c     pjlib-i386-win32-vc8-release:sock_bsd.obj
 0002:00006120       _PJ_SOL_IPV6               00439120     pjlib-i386-win32-vc8-release:sock_bsd.obj
 0002:00006124       _PJ_IP_TOS                 00439124     pjlib-i386-win32-vc8-release:sock_bsd.obj
 0002:00006128       _PJ_IPTOS_LOWDELAY         00439128     pjlib-i386-win32-vc8-release:sock_bsd.obj
 0002:0000612c       _PJ_IPTOS_THROUGHPUT       0043912c     pjlib-i386-win32-vc8-release:sock_bsd.obj
 0002:00006130       _PJ_IPTOS_RELIABILITY      00439130     pjlib-i386-win32-vc8-release:sock_bsd.obj
 0002:00006134       _PJ_IPTOS_MINCOST          00439134     pjlib-i386-win32-vc8-release:sock_bsd.obj
 0002:00006138       _PJ_SO_TYPE                00439138     pjlib-i386-win32-vc8-release:sock_bsd.obj
 0002:0000613c       _PJ_SO_RCVBUF              0043913c     pjlib-i386-win32-vc8-release:sock_bsd.obj
 0002:00006140       _PJ_SO_SNDBUF              00439140     pjlib-i386-win32-vc8-release:sock_bsd.obj
 0002:00006144       _PJ_TCP_NODELAY            00439144     pjlib-i386-win32-vc8-release:sock_bsd.obj
 0002:00006148       _PJ_SO_REUSEADDR           00439148     pjlib-i386-win32-vc8-release:sock_bsd.obj
 0002:0000614c       _PJ_SO_NOSIGPIPE           0043914c     pjlib-i386-win32-vc8-release:sock_bsd.obj
 0002:00006150       _PJ_SO_PRIORITY            00439150     pjlib-i386-win32-vc8-release:sock_bsd.obj
 0002:00006154       _PJ_IP_MULTICAST_IF        00439154     pjlib-i386-win32-vc8-release:sock_bsd.obj
 0002:00006158       _PJ_IP_MULTICAST_TTL       00439158     pjlib-i386-win32-vc8-release:sock_bsd.obj
 0002:0000615c       _PJ_IP_MULTICAST_LOOP      0043915c     pjlib-i386-win32-vc8-release:sock_bsd.obj
 0002:00006160       _PJ_IP_ADD_MEMBERSHIP      00439160     pjlib-i386-win32-vc8-release:sock_bsd.obj
 0002:00006164       _PJ_IP_DROP_MEMBERSHIP     00439164     pjlib-i386-win32-vc8-release:sock_bsd.obj
 0002:00006168       _PJ_MSG_OOB                00439168     pjlib-i386-win32-vc8-release:sock_bsd.obj
 0002:0000616c       _PJ_MSG_PEEK               0043916c     pjlib-i386-win32-vc8-release:sock_bsd.obj
 0002:00006170       _PJ_MSG_DONTROUTE          00439170     pjlib-i386-win32-vc8-release:sock_bsd.obj
 0002:00006174       ??_C@_0BF@KBJNEAPB@?4?4?2src?2pj?2sock_bsd?4c?$AA@ 00439174     pjlib-i386-win32-vc8-release:sock_bsd.obj
 0002:0000618c       ??_C@_0L@NNKPLKFK@sock_bsd?4c?$AA@ 0043918c     pjlib-i386-win32-vc8-release:sock_bsd.obj
 0002:00006198       ??_C@_0CE@IJGJDCPP@Warning?3?5error?5applying?5sock?5opt@ 00439198     pjlib-i386-win32-vc8-release:sock_bsd.obj
 0002:000061bc       ??_C@_06HALIBNKJ@glck?$CFp?$AA@ 004391bc     pjlib-i386-win32-vc8-release:lock.obj
 0002:000061c4       ??_C@_0BB@KPBPCFEE@?4?4?2src?2pj?2rand?4c?$AA@ 004391c4     pjlib-i386-win32-vc8-release:rand.obj
 0002:000061d8       ??_C@_0BC@OIAJPKFB@?4?4?2src?2pj?2types?4c?$AA@ 004391d8     pjlib-i386-win32-vc8-release:types.obj
 0002:000061ec       ??_C@_0BC@IICDBALP@?4?4?2src?2pj?2timer?4c?$AA@ 004391ec     pjlib-i386-win32-vc8-release:timer.obj
 0002:00006200       ??_C@_05PHKAINEA@pjlib?$AA@ 00439200     pjlib-i386-win32-vc8-release:ioqueue_select.obj
 0002:00006208       ??_C@_0CA@IMDCINDN@select?$CI?$CJ?5I?1O?5Queue?5created?5?$CI?$CFp?$CJ?$AA@ 00439208     pjlib-i386-win32-vc8-release:ioqueue_select.obj
 0002:00006228       ??_C@_05LIJONKFG@ioq?$CFp?$AA@ 00439228     pjlib-i386-win32-vc8-release:ioqueue_select.obj
 0002:00006230       ??_C@_0GA@CHOIEMJD@g?3?2360?5sync?2work?2computer?5networ@ 00439230     pjlib-i386-win32-vc8-release:ioqueue_select.obj
 0002:00006290       ??_C@_0BB@LOBHAKEP@?4?4?2src?2pj?2hash?4c?$AA@ 00439290     pjlib-i386-win32-vc8-release:hash.obj
 0002:000062a4       ??_C@_0N@GJOLEKJC@?$DMInvalid?5ID?$DO?$AA@ 004392a4     pjlib-i386-win32-vc8-release:except.obj
 0002:000062b4       ??_C@_0N@LJPLLMIL@exception?5?$CFd?$AA@ 004392b4     pjlib-i386-win32-vc8-release:except.obj
 0002:000062c4       ??_C@_08PDFMOJIE@except?4c?$AA@ 004392c4     pjlib-i386-win32-vc8-release:except.obj
 0002:000062d0       ??_C@_0CD@KFHCCJFN@?$CB?$CB?$CBFATAL?3?5unhandled?5exception?5?$CFs@ 004392d0     pjlib-i386-win32-vc8-release:except.obj
 0002:000062f4       ??_C@_0DB@KFPHELLI@No?5host?5data?5of?5that?5type?5was?5fo@ 004392f4     pjlib-i386-win32-vc8-release:os_error_win32.obj
 0002:00006328       ??_C@_0CD@OEALOMDH@Host?5not?5found?5?$CIWSAHOST_NOT_FOUN@ 00439328     pjlib-i386-win32-vc8-release:os_error_win32.obj
 0002:0000634c       ??_C@_0CL@GFDHEKLB@Graceful?5shutdown?5in?5progress?5?$CIW@ 0043934c     pjlib-i386-win32-vc8-release:os_error_win32.obj
 0002:00006378       ??_C@_0CO@HPDHHDHA@WSAStartup?5not?5yet?5called?5?$CIWSANO@ 00439378     pjlib-i386-win32-vc8-release:os_error_win32.obj
 0002:000063a8       ??_C@_0DC@BLAKHMMJ@Winsock?5version?5out?5of?5range?5?$CIWS@ 004393a8     pjlib-i386-win32-vc8-release:os_error_win32.obj
 0002:000063dc       ??_C@_0CP@IBAEMKGH@Network?5system?5is?5unavailable?5?$CIW@ 004393dc     pjlib-i386-win32-vc8-release:os_error_win32.obj
 0002:0000640c       ??_C@_0CP@MLAFGPOA@Too?5many?5levels?5of?5remote?5in?5pat@ 0043940c     pjlib-i386-win32-vc8-release:os_error_win32.obj
 0002:0000643c       ??_C@_0CC@IMLIDHNH@Stale?5NFS?5file?5handle?5?$CIWSAESTALE@ 0043943c     pjlib-i386-win32-vc8-release:os_error_win32.obj
 0002:00006460       ??_C@_0CA@MIOFDKMA@Disc?5quota?5exceeded?5?$CIWSAEDQUOT?$CJ?$AA@ 00439460     pjlib-i386-win32-vc8-release:os_error_win32.obj
 0002:00006480       ??_C@_0BL@IGHJMJKO@Too?5many?5users?5?$CIWSAEUSERS?$CJ?$AA@ 00439480     pjlib-i386-win32-vc8-release:os_error_win32.obj
 0002:0000649c       ??_C@_0CB@GPCGLHOJ@Too?5many?5processes?5?$CIWSAEPROCLIM?$CJ@ 0043949c     pjlib-i386-win32-vc8-release:os_error_win32.obj
 0002:000064c0       ??_C@_0CD@NEFLEHEG@Directory?5not?5empty?5?$CIWSAENOTEMPT@ 004394c0     pjlib-i386-win32-vc8-release:os_error_win32.obj
 0002:000064e4       ??_C@_0CD@ECJOJHBH@No?5route?5to?5host?5?$CIWSAEHOSTUNREAC@ 004394e4     pjlib-i386-win32-vc8-release:os_error_win32.obj
 0002:00006508       ??_C@_0BM@NCJCEEDP@Host?5is?5down?5?$CIWSAEHOSTDOWN?$CJ?$AA@ 00439508     pjlib-i386-win32-vc8-release:os_error_win32.obj
 0002:00006524       ??_C@_0CF@MOFKOMBB@File?5name?5too?5long?5?$CIWSAENAMETOOL@ 00439524     pjlib-i386-win32-vc8-release:os_error_win32.obj
 0002:0000654c       ??_C@_0CN@FCKBNFMB@Too?5many?5levels?5of?5symbolic?5link@ 0043954c     pjlib-i386-win32-vc8-release:os_error_win32.obj
 0002:0000657c       ??_C@_0CF@JMKFBJH@Connection?5refused?5?$CIWSAECONNREFU@ 0043957c     pjlib-i386-win32-vc8-release:os_error_win32.obj
 0002:000065a4       ??_C@_0CE@IIKHBGF@Connection?5timed?5out?5?$CIWSAETIMEDO@ 004395a4     pjlib-i386-win32-vc8-release:os_error_win32.obj
 0002:000065c8       ??_C@_0DE@CAILNFFE@Too?5many?5references?0?5can?8t?5splic@ 004395c8     pjlib-i386-win32-vc8-release:os_error_win32.obj
 0002:000065fc       ??_C@_0DA@JGJMJPNM@Can?8t?5send?5after?5socket?5shutdown@ 004395fc     pjlib-i386-win32-vc8-release:os_error_win32.obj
 0002:0000662c       ??_C@_0CG@CECDMHLL@Socket?5is?5not?5connected?5?$CIWSAENOT@ 0043962c     pjlib-i386-win32-vc8-release:os_error_win32.obj
 0002:00006654       ??_C@_0CJ@JOPBNNOD@Socket?5is?5already?5connected?5?$CIWSA@ 00439654     pjlib-i386-win32-vc8-release:os_error_win32.obj
 0002:00006680       ??_C@_0CH@EKNGIMKN@No?5buffer?5space?5available?5?$CIWSAEN@ 00439680     pjlib-i386-win32-vc8-release:os_error_win32.obj
 0002:000066a8       ??_C@_0CJ@PJHCFAAN@Connection?5reset?5by?5peer?5?$CIWSAECO@ 004396a8     pjlib-i386-win32-vc8-release:os_error_win32.obj
 0002:000066d4       ??_C@_0DD@PGDIHOBG@Software?5caused?5connection?5abort@ 004396d4     pjlib-i386-win32-vc8-release:os_error_win32.obj
 0002:00006708       ??_C@_0CE@LJEEEFEC@Net?5connection?5reset?5?$CIWSAENETRES@ 00439708     pjlib-i386-win32-vc8-release:os_error_win32.obj
 0002:0000672c       ??_C@_0CI@NKJAACME@Network?5is?5unreachable?5?$CIWSAENETU@ 0043972c     pjlib-i386-win32-vc8-release:os_error_win32.obj
 0002:00006754       ??_C@_0BO@IICKDHLJ@Network?5is?5down?5?$CIWSAENETDOWN?$CJ?$AA@ 00439754     pjlib-i386-win32-vc8-release:os_error_win32.obj
 0002:00006774       ??_C@_0DC@FJJPJPOD@Can?8t?5assign?5requested?5address?5?$CI@ 00439774     pjlib-i386-win32-vc8-release:os_error_win32.obj
 0002:000067a8       ??_C@_0CH@OCKNFBKE@Address?5already?5in?5use?5?$CIWSAEADDR@ 004397a8     pjlib-i386-win32-vc8-release:os_error_win32.obj
 0002:000067d0       ??_C@_0CP@MMKHGIFC@Address?5family?5not?5supported?5?$CIWS@ 004397d0     pjlib-i386-win32-vc8-release:os_error_win32.obj
 0002:00006800       ??_C@_0DA@GFNBENIG@Protocol?5family?5not?5supported?5?$CIW@ 00439800     pjlib-i386-win32-vc8-release:os_error_win32.obj
 0002:00006830       ??_C@_0DC@GJMFANID@Operation?5not?5supported?5on?5socke@ 00439830     pjlib-i386-win32-vc8-release:os_error_win32.obj
 0002:00006864       ??_C@_0CP@JLBNHCOL@Socket?5type?5not?5supported?5?$CIWSAES@ 00439864     pjlib-i386-win32-vc8-release:os_error_win32.obj
 0002:00006894       ??_C@_0CM@HPGHEHCE@Protocol?5not?5supported?5?$CIWSAEPROT@ 00439894     pjlib-i386-win32-vc8-release:os_error_win32.obj
 0002:000068c0       ??_C@_0CF@HNFLHOHA@Bad?5protocol?5option?5?$CIWSAENOPROTO@ 004398c0     pjlib-i386-win32-vc8-release:os_error_win32.obj
 0002:000068e8       ??_C@_0CP@MMIMIEMF@Protocol?5wrong?5type?5for?5socket?5?$CI@ 004398e8     pjlib-i386-win32-vc8-release:os_error_win32.obj
 0002:00006918       ??_C@_0BP@LNFPBFEK@Message?5too?5long?5?$CIWSAEMSGSIZE?$CJ?$AA@ 00439918     pjlib-i386-win32-vc8-release:os_error_win32.obj
 0002:00006938       ??_C@_0CP@HCDICECK@Destination?5address?5required?5?$CIWS@ 00439938     pjlib-i386-win32-vc8-release:os_error_win32.obj
 0002:00006968       ??_C@_0CN@PAFKDEBN@Socket?5operation?5on?5non?9socket?5?$CI@ 00439968     pjlib-i386-win32-vc8-release:os_error_win32.obj
 0002:00006998       ??_C@_0CM@BEMCBKDH@Operation?5already?5in?5progress?5?$CIW@ 00439998     pjlib-i386-win32-vc8-release:os_error_win32.obj
 0002:000069c4       ??_C@_0CL@DKGHEPCD@Operation?5now?5in?5progress?5?$CIWSAEI@ 004399c4     pjlib-i386-win32-vc8-release:os_error_win32.obj
 0002:000069f0       ??_C@_0CH@GCPPFMGM@Operation?5would?5block?5?$CIWSAEWOULD@ 004399f0     pjlib-i386-win32-vc8-release:os_error_win32.obj
 0002:00006a18       ??_C@_0CC@HMKKNDGL@Too?5many?5open?5sockets?5?$CIWSAEMFILE@ 00439a18     pjlib-i386-win32-vc8-release:os_error_win32.obj
 0002:00006a3c       ??_C@_0BN@FEIDINKH@Invalid?5argument?5?$CIWSAEINVAL?$CJ?$AA@ 00439a3c     pjlib-i386-win32-vc8-release:os_error_win32.obj
 0002:00006a5c       ??_C@_0BI@LAKHPJJ@Bad?5address?5?$CIWSAEFAULT?$CJ?$AA@ 00439a5c     pjlib-i386-win32-vc8-release:os_error_win32.obj
 0002:00006a74       ??_C@_0BO@BMBEEPBP@Permission?5denied?5?$CIWSAEACCES?$CJ?$AA@ 00439a74     pjlib-i386-win32-vc8-release:os_error_win32.obj
 0002:00006a94       ??_C@_0BL@OKPDNKLH@Bad?5file?5number?5?$CIWSAEBADF?$CJ?$AA@ 00439a94     pjlib-i386-win32-vc8-release:os_error_win32.obj
 0002:00006ab0       ??_C@_0CD@FNMHLHMI@Interrupted?5system?5call?5?$CIWSAEINT@ 00439ab0     pjlib-i386-win32-vc8-release:os_error_win32.obj
 0002:00006c68       ??_C@_0BE@JPHLLAEM@Win32?5error?5code?5?$CFu?$AA@ 00439c68     pjlib-i386-win32-vc8-release:os_error_win32.obj
 0002:00006c7c       _PJ_GUID_STRING_LENGTH     00439c7c     pjlib-i386-win32-vc8-release:guid_win32.obj
 0002:00006c80       ??_C@_0BH@DLOCENPK@?4?4?2src?2pj?2guid_win32?4c?$AA@ 00439c80     pjlib-i386-win32-vc8-release:guid_win32.obj
 0002:00006cc0       ??_C@_0CK@CGDCCPNL@Error?5setting?5QoS?5params?5?$CIflags?$DN@ 00439cc0     pjlib-i386-win32-vc8-release:sock_qos_common.obj
 0002:00006cec       ??_C@_0CA@EBJCMLJI@Error?5setting?5QoS?5type?5?$CFd?5to?5?$CFs?$AA@ 00439cec     pjlib-i386-win32-vc8-release:sock_qos_common.obj
 0002:00006d0c       ??_C@_06HBELJPBO@socket?$AA@ 00439d0c     pjlib-i386-win32-vc8-release:sock_qos_common.obj
 0002:00006d14       ??_C@_0BC@GPHMAKPK@sock_qos_common?4c?$AA@ 00439d14     pjlib-i386-win32-vc8-release:sock_qos_common.obj
 0002:00006d28       ??_C@_0GB@HHNNKDBF@Received?5?$CFd?5consecutive?5errors?3?5@ 00439d28     pjlib-i386-win32-vc8-release:activesock.obj
 0002:00006d90       __real@408f400000000000    00439d90     pjlib-i386-win32-vc8-release:os_timestamp_common.obj
 0002:00006d98       ??_C@_0BO@KBBNBAFA@?4?4?2src?2pj?2log_writer_stdout?4c?$AA@ 00439d98     pjlib-i386-win32-vc8-release:log_writer_stdout.obj
 0002:00006db8       ??_C@_0BP@JMMENEAD@?4?4?2src?2pj?2pool_policy_malloc?4c?$AA@ 00439db8     pjlib-i386-win32-vc8-release:pool_policy_malloc.obj
 0002:00006dd8       ??_C@_05COGJMIFA@2?45?45?$AA@ 00439dd8     pjlib-i386-win32-vc8-release:config.obj
 0002:00006de0       ??_C@_08DOCHLGNA@config?4c?$AA@ 00439de0     pjlib-i386-win32-vc8-release:config.obj
 0002:00006dec       ??_C@_08PFPBFMIL@IpHlpApi?$AA@ 00439dec     pjlib-i386-win32-vc8-release:ip_helper_win32.obj
 0002:00006df8       ??_C@_0P@PMIJPFPM@GetIpAddrTable?$AA@ 00439df8     pjlib-i386-win32-vc8-release:ip_helper_win32.obj
 0002:00006e08       ??_C@_0BF@LHFCIIHE@GetAdaptersAddresses?$AA@ 00439e08     pjlib-i386-win32-vc8-release:ip_helper_win32.obj
 0002:00006e20       ??_C@_0L@BLHMKEDC@GetIfEntry?$AA@ 00439e20     pjlib-i386-win32-vc8-release:ip_helper_win32.obj
 0002:00006e2c       ??_C@_0BI@FIAAHKJ@?4?4?2src?2pj?2sock_select?4c?$AA@ 00439e2c     pjlib-i386-win32-vc8-release:sock_select.obj
 0002:00006e50       __load_config_used         00439e50     MSVCRT:loadcfg.obj
 0002:00006ea0       ___safe_se_handler_table   00439ea0     <linker-defined>
 0002:00006ea4       ___rtc_iaa                 00439ea4     MSVCRT:_initsect_.obj
 0002:00006ea8       ___rtc_izz                 00439ea8     MSVCRT:_initsect_.obj
 0002:00006eac       ___rtc_taa                 00439eac     MSVCRT:_initsect_.obj
 0002:00006eb0       ___rtc_tzz                 00439eb0     MSVCRT:_initsect_.obj
 0002:00006f34       __IMPORT_DESCRIPTOR_ole32  00439f34     ole32:ole32.dll
 0002:00006f48       __IMPORT_DESCRIPTOR_WS2_32 00439f48     ws2_32:WS2_32.dll
 0002:00006f5c       __IMPORT_DESCRIPTOR_MSVCR90 00439f5c     MSVCRT:MSVCR90.dll
 0002:00006f70       __IMPORT_DESCRIPTOR_KERNEL32 00439f70     kernel32:KERNEL32.dll
 0002:00006f84       __NULL_IMPORT_DESCRIPTOR   00439f84     ole32:ole32.dll
 0003:00000c54       _pjsip_include_allow_hdr_in_dlg 0043bc54     pjsip-core-i386-win32-vc8-release:sip_dialog.obj
 0003:00000cf8       _mod_stateful_util         0043bcf8     pjsip-core-i386-win32-vc8-release:sip_util_statefull.obj
 0003:00000e18       _pjsip_sip_cfg_var         0043be18     pjsip-core-i386-win32-vc8-release:sip_config.obj
 0003:00000e68       _PJSIP_SYN_ERR_EXCEPTION   0043be68     pjsip-core-i386-win32-vc8-release:sip_parser.obj
 0003:00001060       _pj_optind                 0043c060     pjlib-util-i386-win32-vc8-release:getopt.obj
 0003:00001064       _pj_optopt                 0043c064     pjlib-util-i386-win32-vc8-release:getopt.obj
 0003:00001178       _pj_pool_factory_default_policy 0043c178     pjlib-i386-win32-vc8-release:pool_policy_malloc.obj
 0003:0000118c       _PJ_VERSION                0043c18c     pjlib-i386-win32-vc8-release:config.obj
 0003:00001190       ___security_cookie         0043c190     MSVCRT:gs_cookie.obj
 0003:00001194       ___security_cookie_complement 0043c194     MSVCRT:gs_cookie.obj
 0003:000011a0       ___native_dllmain_reason   0043c1a0     MSVCRT:natstart.obj
 0003:000011a4       ___native_vcclrit_reason   0043c1a4     MSVCRT:natstart.obj
 0003:000011a8       ___globallocalestatus      0043c1a8     MSVCRT:xthdloc.obj
 0003:000011ac       ___defaultmatherr          0043c1ac     MSVCRT:merr.obj
 0003:000029ec       _pjsip_use_compact_form    0043d9ec     pjsip-core-i386-win32-vc8-release:sip_msg.obj
 0003:00004d9c       _pj_optarg                 0043fd9c     pjlib-util-i386-win32-vc8-release:getopt.obj
 0003:0000545c       __dowildcard               0044045c     MSVCRT:wildcard.obj
 0003:00005460       __newmode                  00440460     MSVCRT:_newmode.obj
 0003:00005464       __commode                  00440464     MSVCRT:xncommod.obj
 0003:00005468       __fmode                    00440468     MSVCRT:xtxtmode.obj
 0003:0000546c       _pjsip_dlg_lock_tls_id     0044046c     <common>
 0003:00005470       _PJ_NO_MEMORY_EXCEPTION    00440470     <common>
 0003:00005474       ___sse2_available          00440474     <common>
 0003:00005478       __adjust_fdiv              00440478     <common>
 0003:0000547c       ___native_startup_state    0044047c     <common>
 0003:00005480       ___native_startup_lock     00440480     <common>
 0003:00005484       ___onexitend               00440484     <common>
 0003:00005488       ___onexitbegin             00440488     <common>
 0003:0000548c       ___dyn_tls_init_callback   0044048c     <common>

 entry point at        0001:00030c3b

 Static symbols

 0001:00000000       _pj_list_init              00401000 f   sipecho.obj
 0001:00000010       _pj_list_push_back         00401010 f   sipecho.obj
 0001:00000020       _pj_pool_zalloc            00401020 f   sipecho.obj
 0001:00000030       _pj_bzero                  00401030 f   sipecho.obj
 0001:00000040       _app_perror                00401040 f   sipecho.obj
 0001:00000460       _logging_on_rx_msg         00401460 f   sipecho.obj
 0001:000004d0       _logging_on_tx_msg         004014d0 f   sipecho.obj
 0001:00000540       _worker_proc               00401540 f   sipecho.obj
 0001:00000590       _hangup_all                00401590 f   sipecho.obj
 0001:000005e0       _destroy_stack             004015e0 f   sipecho.obj
 0001:000006b0       _destroy_call              004016b0 f   sipecho.obj
 0001:000006c0       _find_remove_sdp_attrs     004016c0 f   sipecho.obj
 0001:00000740       _create_answer             00401740 f   sipecho.obj
 0001:00000940       _call_on_state_changed     00401940 f   sipecho.obj
 0001:000009d0       _call_on_rx_offer          004019d0 f   sipecho.obj
 0001:00000a00       _call_on_forked            00401a00 f   sipecho.obj
 0001:00000a10       _on_rx_request             00401a10 f   sipecho.obj
 0001:00000dc0       _call_on_media_update      00401dc0 f   sipecho.obj
 0001:00000dd0       _usage                     00401dd0 f   sipecho.obj
 0001:00000e10       _init_stack                00401e10 f   sipecho.obj
 0001:00001450       _mod_inv_load              00402450 f   pjsip-ua-i386-win32-vc8-release:sip_inv.obj
 0001:000014f0       _inv_set_cause             004024f0 f   pjsip-ua-i386-win32-vc8-release:sip_inv.obj
 0001:00001560       _tx_data_has_sdp           00402560 f   pjsip-ua-i386-win32-vc8-release:sip_inv.obj
 0001:00001bc0       _clone_sdp                 00402bc0 f   pjsip-ua-i386-win32-vc8-release:sip_inv.obj
 0001:00001be0       _print_sdp                 00402be0 f   pjsip-ua-i386-win32-vc8-release:sip_inv.obj
 0001:00001c80       _create_sdp_body           00402c80 f   pjsip-ua-i386-win32-vc8-release:sip_inv.obj
 0001:00001cb0       _remove_val_from_array_hdr 00402cb0 f   pjsip-ua-i386-win32-vc8-release:sip_inv.obj
 0001:00001d00       _cleanup_allow_sup_hdr     00402d00 f   pjsip-ua-i386-win32-vc8-release:sip_inv.obj
 0001:00002050       _inv_negotiate_sdp         00403050 f   pjsip-ua-i386-win32-vc8-release:sip_inv.obj
 0001:000020e0       _inv_check_sdp_in_incoming_msg 004030e0 f   pjsip-ua-i386-win32-vc8-release:sip_inv.obj
 0001:00002530       _process_answer            00403530 f   pjsip-ua-i386-win32-vc8-release:sip_inv.obj
 0001:00002fd0       _inv_respond_incoming_cancel 00403fd0 f   pjsip-ua-i386-win32-vc8-release:sip_inv.obj
 0001:00003100       _inv_respond_incoming_prack 00404100 f   pjsip-ua-i386-win32-vc8-release:sip_inv.obj
 0001:00003180       _inv_check_secure_dlg      00404180 f   pjsip-ua-i386-win32-vc8-release:sip_inv.obj
 0001:00003430       _inv_set_state             00404430 f   pjsip-ua-i386-win32-vc8-release:sip_inv.obj
 0001:000035b0       _inv_has_pending_answer    004045b0 f   pjsip-ua-i386-win32-vc8-release:sip_inv.obj
 0001:00003640       _inv_perform_pending_bye   00404640 f   pjsip-ua-i386-win32-vc8-release:sip_inv.obj
 0001:000036a0       _mod_inv_on_rx_request     004046a0 f   pjsip-ua-i386-win32-vc8-release:sip_inv.obj
 0001:000037d0       _handle_timer_response     004047d0 f   pjsip-ua-i386-win32-vc8-release:sip_inv.obj
 0001:00003830       _mod_inv_on_tsx_state      00404830 f   pjsip-ua-i386-win32-vc8-release:sip_inv.obj
 0001:00003cf0       _inv_respond_incoming_bye  00404cf0 f   pjsip-ua-i386-win32-vc8-release:sip_inv.obj
 0001:00003d70       _inv_handle_bye_response   00404d70 f   pjsip-ua-i386-win32-vc8-release:sip_inv.obj
 0001:00003e20       _inv_respond_incoming_update 00404e20 f   pjsip-ua-i386-win32-vc8-release:sip_inv.obj
 0001:00004040       _inv_handle_update_response 00405040 f   pjsip-ua-i386-win32-vc8-release:sip_inv.obj
 0001:00004210       _inv_handle_incoming_reliable_response 00405210 f   pjsip-ua-i386-win32-vc8-release:sip_inv.obj
 0001:00004290       _handle_uac_tsx_response   00405290 f   pjsip-ua-i386-win32-vc8-release:sip_inv.obj
 0001:000043d0       _inv_on_state_incoming     004053d0 f   pjsip-ua-i386-win32-vc8-release:sip_inv.obj
 0001:000044d0       _inv_on_state_connecting   004054d0 f   pjsip-ua-i386-win32-vc8-release:sip_inv.obj
 0001:000047a0       _inv_on_state_disconnected 004057a0 f   pjsip-ua-i386-win32-vc8-release:sip_inv.obj
 0001:00004840       _inv_send_ack              00405840 f   pjsip-ua-i386-win32-vc8-release:sip_inv.obj
 0001:00004950       _mod_inv_on_rx_response    00405950 f   pjsip-ua-i386-win32-vc8-release:sip_inv.obj
 0001:00004a00       _inv_uac_recurse           00405a00 f   pjsip-ua-i386-win32-vc8-release:sip_inv.obj
 0001:00004b50       _handle_uac_call_rejection 00405b50 f   pjsip-ua-i386-win32-vc8-release:sip_inv.obj
 0001:00004ca0       _inv_on_state_calling      00405ca0 f   pjsip-ua-i386-win32-vc8-release:sip_inv.obj
 0001:00004fa0       _inv_on_state_early        00405fa0 f   pjsip-ua-i386-win32-vc8-release:sip_inv.obj
 0001:000052f0       _inv_on_state_confirmed    004062f0 f   pjsip-ua-i386-win32-vc8-release:sip_inv.obj
 0001:00005ab0       _inv_on_state_null         00406ab0 f   pjsip-ua-i386-win32-vc8-release:sip_inv.obj
 0001:00005c70       _mod_100rel_load           00406c70 f   pjsip-ua-i386-win32-vc8-release:sip_100rel.obj
 0001:00005cb0       _find_req_hdr              00406cb0 f   pjsip-ua-i386-win32-vc8-release:sip_100rel.obj
 0001:00006140       _clear_all_responses       00407140 f   pjsip-ua-i386-win32-vc8-release:sip_100rel.obj
 0001:000061e0       _parse_rack                004071e0 f   pjsip-ua-i386-win32-vc8-release:sip_100rel.obj
 0001:000062a0       _on_retransmit             004072a0 f   pjsip-ua-i386-win32-vc8-release:sip_100rel.obj
 0001:000063f0       _clone_tdata               004073f0 f   pjsip-ua-i386-win32-vc8-release:sip_100rel.obj
 0001:00006500       _has_sdp                   00407500 f   pjsip-ua-i386-win32-vc8-release:sip_100rel.obj
 0001:00006b70       _se_hdr_print              00407b70 f   pjsip-ua-i386-win32-vc8-release:sip_timer.obj
 0001:00006c60       _pjsip_fromto_hdr_shallow_clone 00407c60 f   pjsip-ua-i386-win32-vc8-release:sip_timer.obj
 0001:00006c60       _se_hdr_shallow_clone      00407c60 f   pjsip-ua-i386-win32-vc8-release:sip_timer.obj
 0001:00006ca0       _min_se_hdr_print          00407ca0 f   pjsip-ua-i386-win32-vc8-release:sip_timer.obj
 0001:00006d30       _min_se_hdr_shallow_clone  00407d30 f   pjsip-ua-i386-win32-vc8-release:sip_timer.obj
 0001:00006d70       _timer_cb                  00407d70 f   pjsip-ua-i386-win32-vc8-release:sip_timer.obj
 0001:00007020       _stop_timer                00408020 f   pjsip-ua-i386-win32-vc8-release:sip_timer.obj
 0001:00007280       _se_hdr_clone              00408280 f   pjsip-ua-i386-win32-vc8-release:sip_timer.obj
 0001:000072c0       _min_se_hdr_clone          004082c0 f   pjsip-ua-i386-win32-vc8-release:sip_timer.obj
 0001:00007320       _add_timer_headers         00408320 f   pjsip-ua-i386-win32-vc8-release:sip_timer.obj
 0001:000073f0       _start_timer               004083f0 f   pjsip-ua-i386-win32-vc8-release:sip_timer.obj
 0001:00007f60       _get_msg_info              00408f60 f   pjsip-core-i386-win32-vc8-release:sip_transport.obj
 0001:00008320       _destroy_transport         00409320 f   pjsip-core-i386-win32-vc8-release:sip_transport.obj
 0001:000084a0       _pjsip_tpmgr_is_tpfactory_valid 004094a0 f   pjsip-core-i386-win32-vc8-release:sip_transport.obj
 0001:00008c80       _tp_state_callback         00409c80 f   pjsip-core-i386-win32-vc8-release:sip_transport.obj
 0001:00008ea0       _tx_data_destroy           00409ea0 f   pjsip-core-i386-win32-vc8-release:sip_transport.obj
 0001:000090e0       _transport_send_callback   0040a0e0 f   pjsip-core-i386-win32-vc8-release:sip_transport.obj
 0001:00009130       _mod_on_tx_msg             0040a130 f   pjsip-core-i386-win32-vc8-release:sip_transport.obj
 0001:00009630       _transport_idle_callback   0040a630 f   pjsip-core-i386-win32-vc8-release:sip_transport.obj
 0001:00009730       _pool_callback             0040a730 f   pjsip-core-i386-win32-vc8-release:sip_endpoint.obj
 0001:00009740       _cmp_mod_name              0040a740 f   pjsip-core-i386-win32-vc8-release:sip_endpoint.obj
 0001:00009870       _unload_module             0040a870 f   pjsip-core-i386-win32-vc8-release:sip_endpoint.obj
 0001:00009ec0       _endpt_on_rx_msg           0040aec0 f   pjsip-core-i386-win32-vc8-release:sip_endpoint.obj
 0001:0000a0e0       _endpt_on_tx_msg           0040b0e0 f   pjsip-core-i386-win32-vc8-release:sip_endpoint.obj
 0001:0000a6d0       _init_hdr                  0040b6d0 f   pjsip-core-i386-win32-vc8-release:sip_msg.obj
 0001:0000a730       _pj_memcmp                 0040b730 f   pjsip-core-i386-win32-vc8-release:sip_msg.obj
 0001:0000a730       _pj_memcmp                 0040b730 f   pjsip-core-i386-win32-vc8-release:sip_msg.obj
 0001:0000a730       _pj_memcmp                 0040b730 f   pjsip-core-i386-win32-vc8-release:sip_msg.obj
 0001:0000a730       _pj_memcmp                 0040b730 f   pjsip-core-i386-win32-vc8-release:sip_msg.obj
 0001:0000a730       _pj_memcmp                 0040b730 f   pjsip-core-i386-win32-vc8-release:sip_msg.obj
 0001:0000a730       _pj_memcmp                 0040b730 f   pjsip-core-i386-win32-vc8-release:sip_msg.obj
 0001:0000a7f0       _init_status_phrase        0040b7f0 f   pjsip-core-i386-win32-vc8-release:sip_msg.obj
 0001:0000b140       _pjsip_generic_string_hdr_print 0040c140 f   pjsip-core-i386-win32-vc8-release:sip_msg.obj
 0001:0000b1b0       _pjsip_generic_string_hdr_clone 0040c1b0 f   pjsip-core-i386-win32-vc8-release:sip_msg.obj
 0001:0000b200       _pjsip_generic_string_hdr_shallow_clone 0040c200 f   pjsip-core-i386-win32-vc8-release:sip_msg.obj
 0001:0000b230       _pjsip_generic_int_hdr_print 0040c230 f   pjsip-core-i386-win32-vc8-release:sip_msg.obj
 0001:0000b290       _pjsip_generic_int_hdr_shallow_clone 0040c290 f   pjsip-core-i386-win32-vc8-release:sip_msg.obj
 0001:0000b290       _pjsip_generic_int_hdr_clone 0040c290 f   pjsip-core-i386-win32-vc8-release:sip_msg.obj
 0001:0000b330       _pjsip_generic_array_hdr_print 0040c330 f   pjsip-core-i386-win32-vc8-release:sip_msg.obj
 0001:0000b410       _pjsip_generic_array_hdr_clone 0040c410 f   pjsip-core-i386-win32-vc8-release:sip_msg.obj
 0001:0000b480       _pjsip_generic_array_hdr_shallow_clone 0040c480 f   pjsip-core-i386-win32-vc8-release:sip_msg.obj
 0001:0000b650       _pjsip_clen_hdr_print      0040c650 f   pjsip-core-i386-win32-vc8-release:sip_msg.obj
 0001:0000b6b0       _pjsip_clen_hdr_clone      0040c6b0 f   pjsip-core-i386-win32-vc8-release:sip_msg.obj
 0001:0000b730       _pjsip_cseq_hdr_print      0040c730 f   pjsip-core-i386-win32-vc8-release:sip_msg.obj
 0001:0000b7a0       _pjsip_cseq_hdr_clone      0040c7a0 f   pjsip-core-i386-win32-vc8-release:sip_msg.obj
 0001:0000b7f0       _pjsip_cseq_hdr_shallow_clone 0040c7f0 f   pjsip-core-i386-win32-vc8-release:sip_msg.obj
 0001:0000b8b0       _pjsip_contact_hdr_print   0040c8b0 f   pjsip-core-i386-win32-vc8-release:sip_msg.obj
 0001:0000baa0       _pjsip_contact_hdr_clone   0040caa0 f   pjsip-core-i386-win32-vc8-release:sip_msg.obj
 0001:0000bb90       _print_media_type          0040cb90 f   pjsip-core-i386-win32-vc8-release:sip_msg.obj
 0001:0000bc10       _pjsip_ctype_hdr_print     0040cc10 f   pjsip-core-i386-win32-vc8-release:sip_msg.obj
 0001:0000bc80       _pjsip_ctype_hdr_clone     0040cc80 f   pjsip-core-i386-win32-vc8-release:sip_msg.obj
 0001:0000bea0       _pjsip_fromto_hdr_print    0040cea0 f   pjsip-core-i386-win32-vc8-release:sip_msg.obj
 0001:0000bfa0       _pjsip_fromto_hdr_clone    0040cfa0 f   pjsip-core-i386-win32-vc8-release:sip_msg.obj
 0001:0000c1a0       _pjsip_routing_hdr_print   0040d1a0 f   pjsip-core-i386-win32-vc8-release:sip_msg.obj
 0001:0000c2d0       _pjsip_routing_hdr_clone   0040d2d0 f   pjsip-core-i386-win32-vc8-release:sip_msg.obj
 0001:0000c320       _pjsip_routing_hdr_shallow_clone 0040d320 f   pjsip-core-i386-win32-vc8-release:sip_msg.obj
 0001:0000c320       _pjsip_contact_hdr_shallow_clone 0040d320 f   pjsip-core-i386-win32-vc8-release:sip_msg.obj
 0001:0000c410       _pjsip_retry_after_hdr_print 0040d410 f   pjsip-core-i386-win32-vc8-release:sip_msg.obj
 0001:0000c4f0       _pjsip_retry_after_hdr_clone 0040d4f0 f   pjsip-core-i386-win32-vc8-release:sip_msg.obj
 0001:0000c530       _pjsip_retry_after_hdr_shallow_clone 0040d530 f   pjsip-core-i386-win32-vc8-release:sip_msg.obj
 0001:0000c6e0       _pjsip_via_hdr_print       0040d6e0 f   pjsip-core-i386-win32-vc8-release:sip_msg.obj
 0001:0000cab0       _pjsip_via_hdr_clone       0040dab0 f   pjsip-core-i386-win32-vc8-release:sip_msg.obj
 0001:0000cb40       _pjsip_via_hdr_shallow_clone 0040db40 f   pjsip-core-i386-win32-vc8-release:sip_msg.obj
 0001:0000d110       _create_dialog             0040e110 f   pjsip-core-i386-win32-vc8-release:sip_dialog.obj
 0001:0000d220       _destroy_dialog            0040e220 f   pjsip-core-i386-win32-vc8-release:sip_dialog.obj
 0001:0000d6b0       _unregister_and_destroy_dialog 0040e6b0 f   pjsip-core-i386-win32-vc8-release:sip_dialog.obj
 0001:0000d990       _dlg_create_request_throw  0040e990 f   pjsip-core-i386-win32-vc8-release:sip_dialog.obj
 0001:0000dd40       _dlg_beautify_response     0040ed40 f   pjsip-core-i386-win32-vc8-release:sip_dialog.obj
 0001:0000e4e0       _dlg_update_routeset       0040f4e0 f   pjsip-core-i386-win32-vc8-release:sip_dialog.obj
 0001:0000f630       _mod_ua_load               00410630 f   pjsip-core-i386-win32-vc8-release:sip_ua_layer.obj
 0001:0000f6d0       _mod_ua_unload             004106d0 f   pjsip-core-i386-win32-vc8-release:sip_ua_layer.obj
 0001:0000f710       _mod_ua_on_tsx_state       00410710 f   pjsip-core-i386-win32-vc8-release:sip_ua_layer.obj
 0001:0000f790       _alloc_dlgset_node         00410790 f   pjsip-core-i386-win32-vc8-release:sip_ua_layer.obj
 0001:0000fa00       _find_dlg_set_for_msg      00410a00 f   pjsip-core-i386-win32-vc8-release:sip_ua_layer.obj
 0001:0000fab0       _mod_ua_on_rx_request      00410ab0 f   pjsip-core-i386-win32-vc8-release:sip_ua_layer.obj
 0001:0000fca0       _mod_ua_on_rx_response     00410ca0 f   pjsip-core-i386-win32-vc8-release:sip_ua_layer.obj
 0001:00010160       _init_request_throw        00411160 f   pjsip-core-i386-win32-vc8-release:sip_util.obj
 0001:00010e60       _stateless_send_transport_cb 00411e60 f   pjsip-core-i386-win32-vc8-release:sip_util.obj
 0001:00011160       _stateless_send_resolver_callback 00412160 f   pjsip-core-i386-win32-vc8-release:sip_util.obj
 0001:00011470       _send_response_transport_cb 00412470 f   pjsip-core-i386-win32-vc8-release:sip_util.obj
 0001:000114b0       _send_response_resolver_cb 004124b0 f   pjsip-core-i386-win32-vc8-release:sip_util.obj
 0001:00011b10       _mod_util_on_tsx_state     00412b10 f   pjsip-core-i386-win32-vc8-release:sip_util_statefull.obj
 0001:00011cd0       _create_tsx_key_2543       00412cd0 f   pjsip-core-i386-win32-vc8-release:sip_transaction.obj
 0001:00011e10       _create_tsx_key_3261       00412e10 f   pjsip-core-i386-win32-vc8-release:sip_transaction.obj
 0001:00012090       _mod_tsx_layer_register_tsx 00413090 f   pjsip-core-i386-win32-vc8-release:sip_transaction.obj
 0001:00012120       _mod_tsx_layer_unregister_tsx 00413120 f   pjsip-core-i386-win32-vc8-release:sip_transaction.obj
 0001:000121e0       _mod_inv_unload            004131e0 f   pjsip-core-i386-win32-vc8-release:sip_transaction.obj
 0001:000121e0       _mod_tsx_layer_load        004131e0 f   pjsip-core-i386-win32-vc8-release:sip_transaction.obj
 0001:000121e0       _mod_tsx_layer_start       004131e0 f   pjsip-core-i386-win32-vc8-release:sip_transaction.obj
 0001:000121e0       _null_op                   004131e0 f   pjsip-core-i386-win32-vc8-release:sip_transaction.obj
 0001:000121f0       _tsx_layer_destroy         004131f0 f   pjsip-core-i386-win32-vc8-release:sip_transaction.obj
 0001:00012240       _mod_tsx_layer_unload      00413240 f   pjsip-core-i386-win32-vc8-release:sip_transaction.obj
 0001:000122c0       _tsx_schedule_timer        004132c0 f   pjsip-core-i386-win32-vc8-release:sip_transaction.obj
 0001:000122f0       _tsx_cancel_timer          004132f0 f   pjsip-core-i386-win32-vc8-release:sip_transaction.obj
 0001:00012310       _tsx_on_destroy            00413310 f   pjsip-core-i386-win32-vc8-release:sip_transaction.obj
 0001:000123b0       _tsx_set_status_code       004133b0 f   pjsip-core-i386-win32-vc8-release:sip_transaction.obj
 0001:00012600       _transport_callback        00413600 f   pjsip-core-i386-win32-vc8-release:sip_transaction.obj
 0001:00012700       _tsx_tp_state_callback     00413700 f   pjsip-core-i386-win32-vc8-release:sip_transaction.obj
 0001:00012780       _tsx_resched_retransmission 00413780 f   pjsip-core-i386-win32-vc8-release:sip_transaction.obj
 0001:00012820       _tsx_update_transport      00413820 f   pjsip-core-i386-win32-vc8-release:sip_transaction.obj
 0001:000128b0       _tsx_on_state_destroyed    004138b0 f   pjsip-core-i386-win32-vc8-release:sip_transaction.obj
 0001:000128c0       _mod_tsx_layer_on_rx_request 004138c0 f   pjsip-core-i386-win32-vc8-release:sip_transaction.obj
 0001:00012970       _mod_tsx_layer_on_rx_response 00413970 f   pjsip-core-i386-win32-vc8-release:sip_transaction.obj
 0001:00012a20       _tsx_shutdown              00413a20 f   pjsip-core-i386-win32-vc8-release:sip_transaction.obj
 0001:00012b10       _tsx_set_state             00413b10 f   pjsip-core-i386-win32-vc8-release:sip_transaction.obj
 0001:00012d50       _send_msg_callback         00413d50 f   pjsip-core-i386-win32-vc8-release:sip_transaction.obj
 0001:00013110       _tsx_send_msg              00414110 f   pjsip-core-i386-win32-vc8-release:sip_transaction.obj
 0001:00013460       _tsx_retransmit            00414460 f   pjsip-core-i386-win32-vc8-release:sip_transaction.obj
 0001:00013510       _tsx_on_state_null         00414510 f   pjsip-core-i386-win32-vc8-release:sip_transaction.obj
 0001:00013780       _tsx_on_state_proceeding_uas 00414780 f   pjsip-core-i386-win32-vc8-release:sip_transaction.obj
 0001:00013d90       _tsx_on_state_proceeding_uac 00414d90 f   pjsip-core-i386-win32-vc8-release:sip_transaction.obj
 0001:000141e0       _tsx_on_state_completed_uas 004151e0 f   pjsip-core-i386-win32-vc8-release:sip_transaction.obj
 0001:00014490       _tsx_on_state_completed_uac 00415490 f   pjsip-core-i386-win32-vc8-release:sip_transaction.obj
 0001:00014510       _tsx_on_state_confirmed    00415510 f   pjsip-core-i386-win32-vc8-release:sip_transaction.obj
 0001:00014570       _tsx_on_state_terminated   00415570 f   pjsip-core-i386-win32-vc8-release:sip_transaction.obj
 0001:000145a0       _mod_tsx_layer_stop        004155a0 f   pjsip-core-i386-win32-vc8-release:sip_transaction.obj
 0001:00014710       _tsx_timer_callback        00415710 f   pjsip-core-i386-win32-vc8-release:sip_transaction.obj
 0001:000148d0       _tsx_on_state_calling      004158d0 f   pjsip-core-i386-win32-vc8-release:sip_transaction.obj
 0001:00014ae0       _tsx_on_state_trying       00415ae0 f   pjsip-core-i386-win32-vc8-release:sip_transaction.obj
 0001:00014bc0       _tsx_create                00415bc0 f   pjsip-core-i386-win32-vc8-release:sip_transaction.obj
 0001:000151e0       _init_rdata                004161e0 f   pjsip-core-i386-win32-vc8-release:sip_transport_udp.obj
 0001:00015230       _udp_on_read_complete      00416230 f   pjsip-core-i386-win32-vc8-release:sip_transport_udp.obj
 0001:00015400       _udp_on_write_complete     00416400 f   pjsip-core-i386-win32-vc8-release:sip_transport_udp.obj
 0001:00015440       _udp_send_msg              00416440 f   pjsip-core-i386-win32-vc8-release:sip_transport_udp.obj
 0001:000154f0       _udp_on_destroy            004164f0 f   pjsip-core-i386-win32-vc8-release:sip_transport_udp.obj
 0001:00015570       _udp_destroy               00416570 f   pjsip-core-i386-win32-vc8-release:sip_transport_udp.obj
 0001:00015640       _udp_shutdown              00416640 f   pjsip-core-i386-win32-vc8-release:sip_transport_udp.obj
 0001:00015650       _create_socket             00416650 f   pjsip-core-i386-win32-vc8-release:sip_transport_udp.obj
 0001:00015730       _get_published_name        00416730 f   pjsip-core-i386-win32-vc8-release:sip_transport_udp.obj
 0001:00015870       _udp_set_pub_name          00416870 f   pjsip-core-i386-win32-vc8-release:sip_transport_udp.obj
 0001:00015900       _register_to_ioqueue       00416900 f   pjsip-core-i386-win32-vc8-release:sip_transport_udp.obj
 0001:000159a0       _start_async_read          004169a0 f   pjsip-core-i386-win32-vc8-release:sip_transport_udp.obj
 0001:00015a50       _transport_attach          00416a50 f   pjsip-core-i386-win32-vc8-release:sip_transport_udp.obj
 0001:00016030       _tcp_perror                00417030 f   pjsip-core-i386-win32-vc8-release:sip_transport_tcp.obj
 0001:00016080       _sockaddr_to_host_port     00417080 f   pjsip-core-i386-win32-vc8-release:sip_transport_tcp.obj
 0001:000160c0       _tcp_init_shutdown         004170c0 f   pjsip-core-i386-win32-vc8-release:sip_transport_tcp.obj
 0001:00016150       _lis_on_destroy            00417150 f   pjsip-core-i386-win32-vc8-release:sip_transport_tcp.obj
 0001:000161b0       _lis_destroy               004171b0 f   pjsip-core-i386-win32-vc8-release:sip_transport_tcp.obj
 0001:00016220       _tcp_on_destroy            00417220 f   pjsip-core-i386-win32-vc8-release:sip_transport_tcp.obj
 0001:00016300       _tcp_start_read            00417300 f   pjsip-core-i386-win32-vc8-release:sip_transport_tcp.obj
 0001:00016470       _on_data_sent              00417470 f   pjsip-core-i386-win32-vc8-release:sip_transport_tcp.obj
 0001:00016510       _tcp_send_msg              00417510 f   pjsip-core-i386-win32-vc8-release:sip_transport_tcp.obj
 0001:00016690       _tcp_shutdown              00417690 f   pjsip-core-i386-win32-vc8-release:sip_transport_tcp.obj
 0001:000166d0       _on_data_read              004176d0 f   pjsip-core-i386-win32-vc8-release:sip_transport_tcp.obj
 0001:000167b0       _tcp_keep_alive_timer      004177b0 f   pjsip-core-i386-win32-vc8-release:sip_transport_tcp.obj
 0001:00016900       _tcp_flush_pending_tx      00417900 f   pjsip-core-i386-win32-vc8-release:sip_transport_tcp.obj
 0001:000169e0       _tcp_destroy               004179e0 f   pjsip-core-i386-win32-vc8-release:sip_transport_tcp.obj
 0001:00016ae0       _on_connect_complete       00417ae0 f   pjsip-core-i386-win32-vc8-release:sip_transport_tcp.obj
 0001:00016ce0       _tcp_destroy_transport     00417ce0 f   pjsip-core-i386-win32-vc8-release:sip_transport_tcp.obj
 0001:00016d00       _tcp_create                00417d00 f   pjsip-core-i386-win32-vc8-release:sip_transport_tcp.obj
 0001:00017090       _lis_create_transport      00418090 f   pjsip-core-i386-win32-vc8-release:sip_transport_tcp.obj
 0001:000173f0       _on_accept_complete        004183f0 f   pjsip-core-i386-win32-vc8-release:sip_transport_tcp.obj
 0001:00017c70       _multipart_print_body      00418c70 f   pjsip-core-i386-win32-vc8-release:sip_multipart.obj
 0001:00017fc0       _parse_multipart_part      00418fc0 f   pjsip-core-i386-win32-vc8-release:sip_multipart.obj
 0001:00018190       _multipart_clone_data      00419190 f   pjsip-core-i386-win32-vc8-release:sip_multipart.obj
 0001:00018600       _pj_strtoul_mindigit       00419600 f   pjsip-core-i386-win32-vc8-release:sip_parser.obj
 0001:00018640       _on_syntax_error           00419640 f   pjsip-core-i386-win32-vc8-release:sip_parser.obj
 0001:000186c0       _int_register_parser       004196c0 f   pjsip-core-i386-win32-vc8-release:sip_parser.obj
 0001:000188f0       _find_handler_imp          004198f0 f   pjsip-core-i386-win32-vc8-release:sip_parser.obj
 0001:00018980       _find_handler              00419980 f   pjsip-core-i386-win32-vc8-release:sip_parser.obj
 0001:00018c60       _parse_sip_version         00419c60 f   pjsip-core-i386-win32-vc8-release:sip_parser.obj
 0001:00018d00       _is_next_sip_version       00419d00 f   pjsip-core-i386-win32-vc8-release:sip_parser.obj
 0001:00018d60       _parse_param_imp           00419d60 f   pjsip-core-i386-win32-vc8-release:sip_parser.obj
 0001:00018e30       _int_parse_hparam          00419e30 f   pjsip-core-i386-win32-vc8-release:sip_parser.obj
 0001:00018ec0       _int_parse_uri_host_port   00419ec0 f   pjsip-core-i386-win32-vc8-release:sip_parser.obj
 0001:00018f30       _int_parse_user_pass       00419f30 f   pjsip-core-i386-win32-vc8-release:sip_parser.obj
 0001:00018fa0       _int_parse_sip_url         00419fa0 f   pjsip-core-i386-win32-vc8-release:sip_parser.obj
 0001:00019300       _int_parse_other_uri       0041a300 f   pjsip-core-i386-win32-vc8-release:sip_parser.obj
 0001:00019370       _int_parse_status_line     0041a370 f   pjsip-core-i386-win32-vc8-release:sip_parser.obj
 0001:00019410       _parse_generic_array_hdr   0041a410 f   pjsip-core-i386-win32-vc8-release:sip_parser.obj
 0001:000194a0       _parse_generic_string_hdr  0041a4a0 f   pjsip-core-i386-win32-vc8-release:sip_parser.obj
 0001:000195e0       _parse_hdr_accept          0041a5e0 f   pjsip-core-i386-win32-vc8-release:sip_parser.obj
 0001:00019600       _parse_hdr_allow           0041a600 f   pjsip-core-i386-win32-vc8-release:sip_parser.obj
 0001:00019620       _parse_hdr_call_id         0041a620 f   pjsip-core-i386-win32-vc8-release:sip_parser.obj
 0001:00019680       _int_parse_contact_param   0041a680 f   pjsip-core-i386-win32-vc8-release:sip_parser.obj
 0001:000198a0       _parse_hdr_content_len     0041a8a0 f   pjsip-core-i386-win32-vc8-release:sip_parser.obj
 0001:00019910       _parse_hdr_content_type    0041a910 f   pjsip-core-i386-win32-vc8-release:sip_parser.obj
 0001:00019a80       _parse_hdr_cseq            0041aa80 f   pjsip-core-i386-win32-vc8-release:sip_parser.obj
 0001:00019b10       _parse_hdr_expires         0041ab10 f   pjsip-core-i386-win32-vc8-release:sip_parser.obj
 0001:00019b80       _parse_hdr_require         0041ab80 f   pjsip-core-i386-win32-vc8-release:sip_parser.obj
 0001:00019c00       _parse_hdr_retry_after     0041ac00 f   pjsip-core-i386-win32-vc8-release:sip_parser.obj
 0001:00019d10       _parse_hdr_supported       0041ad10 f   pjsip-core-i386-win32-vc8-release:sip_parser.obj
 0001:00019d90       _parse_hdr_unsupported     0041ad90 f   pjsip-core-i386-win32-vc8-release:sip_parser.obj
 0001:00019db0       _int_parse_via_param       0041adb0 f   pjsip-core-i386-win32-vc8-release:sip_parser.obj
 0001:00019fd0       _parse_hdr_max_forwards    0041afd0 f   pjsip-core-i386-win32-vc8-release:sip_parser.obj
 0001:0001a040       _parse_hdr_min_expires     0041b040 f   pjsip-core-i386-win32-vc8-release:sip_parser.obj
 0001:0001a0b0       _parse_hdr_via             0041b0b0 f   pjsip-core-i386-win32-vc8-release:sip_parser.obj
 0001:0001a4c0       _find_uri_handler          0041b4c0 f   pjsip-core-i386-win32-vc8-release:sip_parser.obj
 0001:0001a510       _int_parse_uri             0041b510 f   pjsip-core-i386-win32-vc8-release:sip_parser.obj
 0001:0001a570       _int_parse_name_addr       0041b570 f   pjsip-core-i386-win32-vc8-release:sip_parser.obj
 0001:0001a650       _int_parse_req_line        0041b650 f   pjsip-core-i386-win32-vc8-release:sip_parser.obj
 0001:0001a6a0       _parse_hdr_rr_route        0041b6a0 f   pjsip-core-i386-win32-vc8-release:sip_parser.obj
 0001:0001a7b0       _parse_hdr_rr              0041b7b0 f   pjsip-core-i386-win32-vc8-release:sip_parser.obj
 0001:0001a840       _parse_hdr_route           0041b840 f   pjsip-core-i386-win32-vc8-release:sip_parser.obj
 0001:0001a8d0       _int_parse_msg             0041b8d0 f   pjsip-core-i386-win32-vc8-release:sip_parser.obj
 0001:0001ac20       _int_parse_uri_or_name_addr 0041bc20 f   pjsip-core-i386-win32-vc8-release:sip_parser.obj
 0001:0001acc0       _parse_hdr_contact         0041bcc0 f   pjsip-core-i386-win32-vc8-release:sip_parser.obj
 0001:0001ad80       _parse_hdr_fromto          0041bd80 f   pjsip-core-i386-win32-vc8-release:sip_parser.obj
 0001:0001af00       _parse_hdr_from            0041bf00 f   pjsip-core-i386-win32-vc8-release:sip_parser.obj
 0001:0001af40       _parse_hdr_to              0041bf40 f   pjsip-core-i386-win32-vc8-release:sip_parser.obj
 0001:0001af80       _init_parser               0041bf80 f   pjsip-core-i386-win32-vc8-release:sip_parser.obj
 0001:0001b720       _digest2str                0041c720 f   pjsip-core-i386-win32-vc8-release:sip_auth_client.obj
 0001:0001ba90       _has_auth_qop              0041ca90 f   pjsip-core-i386-win32-vc8-release:sip_auth_client.obj
 0001:0001bb20       _respond_digest            0041cb20 f   pjsip-core-i386-win32-vc8-release:sip_auth_client.obj
 0001:0001bd60       _update_digest_session     0041cd60 f   pjsip-core-i386-win32-vc8-release:sip_auth_client.obj
 0001:0001be20       _find_cached_auth          0041ce20 f   pjsip-core-i386-win32-vc8-release:sip_auth_client.obj
 0001:0001be60       _auth_find_cred            0041ce60 f   pjsip-core-i386-win32-vc8-release:sip_auth_client.obj
 0001:0001bf70       _auth_respond              0041cf70 f   pjsip-core-i386-win32-vc8-release:sip_auth_client.obj
 0001:0001c340       _recreate_cached_auth_pool 0041d340 f   pjsip-core-i386-win32-vc8-release:sip_auth_client.obj
 0001:0001c3e0       _process_auth              0041d3e0 f   pjsip-core-i386-win32-vc8-release:sip_auth_client.obj
 0001:0001ca30       _pjsip_url_get_scheme      0041da30 f   pjsip-core-i386-win32-vc8-release:sip_uri.obj
 0001:0001ca40       _pjsips_url_get_scheme     0041da40 f   pjsip-core-i386-win32-vc8-release:sip_uri.obj
 0001:0001ca50       _pjsip_name_addr_get_uri   0041da50 f   pjsip-core-i386-win32-vc8-release:sip_uri.obj
 0001:0001cac0       _pjsip_url_print           0041dac0 f   pjsip-core-i386-win32-vc8-release:sip_uri.obj
 0001:0001cfd0       _pjsip_url_compare         0041dfd0 f   pjsip-core-i386-win32-vc8-release:sip_uri.obj
 0001:0001d210       _pjsip_url_clone           0041e210 f   pjsip-core-i386-win32-vc8-release:sip_uri.obj
 0001:0001d280       _pjsip_name_addr_get_scheme 0041e280 f   pjsip-core-i386-win32-vc8-release:sip_uri.obj
 0001:0001d2f0       _pjsip_name_addr_print     0041e2f0 f   pjsip-core-i386-win32-vc8-release:sip_uri.obj
 0001:0001d410       _pjsip_name_addr_clone     0041e410 f   pjsip-core-i386-win32-vc8-release:sip_uri.obj
 0001:0001d470       _pjsip_name_addr_compare   0041e470 f   pjsip-core-i386-win32-vc8-release:sip_uri.obj
 0001:0001d4e0       _other_uri_get_scheme      0041e4e0 f   pjsip-core-i386-win32-vc8-release:sip_uri.obj
 0001:0001d4f0       _other_uri_print           0041e4f0 f   pjsip-core-i386-win32-vc8-release:sip_uri.obj
 0001:0001d560       _other_uri_cmp             0041e560 f   pjsip-core-i386-win32-vc8-release:sip_uri.obj
 0001:0001d5b0       _other_uri_clone           0041e5b0 f   pjsip-core-i386-win32-vc8-release:sip_uri.obj
 0001:0001d650       _get_ip_addr_ver           0041e650 f   pjsip-core-i386-win32-vc8-release:sip_resolve.obj
 0001:0001d6c0       _dns_a_callback            0041e6c0 f   pjsip-core-i386-win32-vc8-release:sip_resolve.obj
 0001:0001d820       _dns_aaaa_callback         0041e820 f   pjsip-core-i386-win32-vc8-release:sip_resolve.obj
 0001:0001d9a0       _srv_resolver_cb           0041e9a0 f   pjsip-core-i386-win32-vc8-release:sip_resolve.obj
 0001:0001e090       _tel_uri_get_scheme        0041f090 f   pjsip-core-i386-win32-vc8-release:sip_tel_uri.obj
 0001:0001e0a0       _other_uri_get_uri         0041f0a0 f   pjsip-core-i386-win32-vc8-release:sip_tel_uri.obj
 0001:0001e0a0       _pjsip_get_uri             0041f0a0 f   pjsip-core-i386-win32-vc8-release:sip_tel_uri.obj
 0001:0001e0a0       _tel_uri_get_uri           0041f0a0 f   pjsip-core-i386-win32-vc8-release:sip_tel_uri.obj
 0001:0001e0b0       _tel_uri_print             0041f0b0 f   pjsip-core-i386-win32-vc8-release:sip_tel_uri.obj
 0001:0001e330       _tel_uri_cmp               0041f330 f   pjsip-core-i386-win32-vc8-release:sip_tel_uri.obj
 0001:0001e460       _tel_uri_clone             0041f460 f   pjsip-core-i386-win32-vc8-release:sip_tel_uri.obj
 0001:0001e4e0       _tel_uri_parse             0041f4e0 f   pjsip-core-i386-win32-vc8-release:sip_tel_uri.obj
 0001:0001ea10       _parse_digest_credential   0041fa10 f   pjsip-core-i386-win32-vc8-release:sip_auth_parser.obj
 0001:0001ec20       _parse_digest_challenge    0041fc20 f   pjsip-core-i386-win32-vc8-release:sip_auth_parser.obj
 0001:0001edd0       _int_parse_hdr_authorization 0041fdd0 f   pjsip-core-i386-win32-vc8-release:sip_auth_parser.obj
 0001:0001ee60       _int_parse_hdr_authenticate 0041fe60 f   pjsip-core-i386-win32-vc8-release:sip_auth_parser.obj
 0001:0001ef00       _parse_hdr_authorization   0041ff00 f   pjsip-core-i386-win32-vc8-release:sip_auth_parser.obj
 0001:0001ef30       _parse_hdr_proxy_authorization 0041ff30 f   pjsip-core-i386-win32-vc8-release:sip_auth_parser.obj
 0001:0001ef60       _parse_hdr_www_authenticate 0041ff60 f   pjsip-core-i386-win32-vc8-release:sip_auth_parser.obj
 0001:0001ef90       _parse_hdr_proxy_authenticate 0041ff90 f   pjsip-core-i386-win32-vc8-release:sip_auth_parser.obj
 0001:0001f0e0       _print_digest_credential   004200e0 f   pjsip-core-i386-win32-vc8-release:sip_auth_msg.obj
 0001:0001f5a0       _pjsip_authorization_hdr_print 004205a0 f   pjsip-core-i386-win32-vc8-release:sip_auth_msg.obj
 0001:0001f650       _pjsip_authorization_hdr_clone 00420650 f   pjsip-core-i386-win32-vc8-release:sip_auth_msg.obj
 0001:0001f760       _pjsip_authorization_hdr_shallow_clone 00420760 f   pjsip-core-i386-win32-vc8-release:sip_auth_msg.obj
 0001:0001f860       _print_digest_challenge    00420860 f   pjsip-core-i386-win32-vc8-release:sip_auth_msg.obj
 0001:0001fbb0       _pjsip_www_authenticate_hdr_print 00420bb0 f   pjsip-core-i386-win32-vc8-release:sip_auth_msg.obj
 0001:0001fc60       _pjsip_www_authenticate_hdr_clone 00420c60 f   pjsip-core-i386-win32-vc8-release:sip_auth_msg.obj
 0001:0001fd30       _pjsip_www_authenticate_hdr_shallow_clone 00420d30 f   pjsip-core-i386-win32-vc8-release:sip_auth_msg.obj
 0001:0001fd70       _init_sdp_parser           00420d70 f   pjmedia-i386-win32-vc8-release:sdp.obj
 0001:00020020       _print_connection_info     00421020 f   pjmedia-i386-win32-vc8-release:sdp.obj
 0001:000200d0       _print_media_desc          004210d0 f   pjmedia-i386-win32-vc8-release:sdp.obj
 0001:00020670       _print_session             00421670 f   pjmedia-i386-win32-vc8-release:sdp.obj
 0001:00020930       _parse_connection_info     00421930 f   pjmedia-i386-win32-vc8-release:sdp.obj
 0001:00020980       _parse_bandwidth_info      00421980 f   pjmedia-i386-win32-vc8-release:sdp.obj
 0001:000209d0       _on_scanner_error          004219d0 f   pjmedia-i386-win32-vc8-release:sdp.obj
 0001:000209e0       _parse_attr                004219e0 f   pjmedia-i386-win32-vc8-release:sdp.obj
 0001:00020a80       _apply_media_direction     00421a80 f   pjmedia-i386-win32-vc8-release:sdp.obj
 0001:00020e70       _validate_sdp_conn         00421e70 f   pjmedia-i386-win32-vc8-release:sdp.obj
 0001:00021440       _parse_origin              00422440 f   pjmedia-i386-win32-vc8-release:sdp.obj
 0001:00021500       _parse_time                00422500 f   pjmedia-i386-win32-vc8-release:sdp.obj
 0001:00021570       _parse_generic_line        00422570 f   pjmedia-i386-win32-vc8-release:sdp.obj
 0001:000215b0       _parse_media               004225b0 f   pjmedia-i386-win32-vc8-release:sdp.obj
 0001:00021d60       _sdp_media_clone_deactivate 00422d60 f   pjmedia-i386-win32-vc8-release:sdp_neg.obj
 0001:00022230       _update_media_direction    00423230 f   pjmedia-i386-win32-vc8-release:sdp_neg.obj
 0001:00022370       _rewrite_pt                00423370 f   pjmedia-i386-win32-vc8-release:sdp_neg.obj
 0001:000223f0       _apply_answer_symmetric_pt 004233f0 f   pjmedia-i386-win32-vc8-release:sdp_neg.obj
 0001:00022570       _custom_fmt_match          00423570 f   pjmedia-i386-win32-vc8-release:sdp_neg.obj
 0001:000225b0       _process_m_answer          004235b0 f   pjmedia-i386-win32-vc8-release:sdp_neg.obj
 0001:000229a0       _process_answer            004239a0 f   pjmedia-i386-win32-vc8-release:sdp_neg.obj
 0001:00022b00       _match_offer               00423b00 f   pjmedia-i386-win32-vc8-release:sdp_neg.obj
 0001:000230e0       _create_answer             004240e0 f   pjmedia-i386-win32-vc8-release:sdp_neg.obj
 0001:00023380       _my_index                  00424380 f   pjlib-util-i386-win32-vc8-release:getopt.obj
 0001:000233a0       _exchange                  004243a0 f   pjlib-util-i386-win32-vc8-release:getopt.obj
 0001:00023460       __getopt_initialize        00424460 f   pjlib-util-i386-win32-vc8-release:getopt.obj
 0001:000234b0       __getopt_internal          004244b0 f   pjlib-util-i386-win32-vc8-release:getopt.obj
 0001:00024650       _close_sock                00425650 f   pjlib-util-i386-win32-vc8-release:resolver.obj
 0001:00024830       _alloc_qnode               00425830 f   pjlib-util-i386-win32-vc8-release:resolver.obj
 0001:000248b0       _init_res_key              004258b0 f   pjlib-util-i386-win32-vc8-release:resolver.obj
 0001:00024c60       _set_nameserver_state      00425c60 f   pjlib-util-i386-win32-vc8-release:resolver.obj
 0001:00024d30       _select_nameservers        00425d30 f   pjlib-util-i386-win32-vc8-release:resolver.obj
 0001:00024f50       _transmit_query            00425f50 f   pjlib-util-i386-win32-vc8-release:resolver.obj
 0001:00025560       _on_timeout                00426560 f   pjlib-util-i386-win32-vc8-release:resolver.obj
 0001:00025910       _MD5Transform              00426910 f   pjlib-util-i386-win32-vc8-release:md5.obj
 0001:000261a0       _build_server_entries      004271a0 f   pjlib-util-i386-win32-vc8-release:srv_resolver.obj
 0001:00026840       _resolve_hostnames         00427840 f   pjlib-util-i386-win32-vc8-release:srv_resolver.obj
 0001:00026930       _dns_callback              00427930 f   pjlib-util-i386-win32-vc8-release:srv_resolver.obj
 0001:00027470       _pj_pool_create_block      00428470 f   pjlib-i386-win32-vc8-release:pool.obj
 0001:000276a0       _reset_pool                004286a0 f   pjlib-i386-win32-vc8-release:pool.obj
 0001:00027800       _logging_shutdown          00428800 f   pjlib-i386-win32-vc8-release:log.obj
 0001:00027ea0       _pjlib_error               00428ea0 f   pjlib-i386-win32-vc8-release:errno.obj
 0001:000280c0       _invoke_log                004290c0 f   pjlib-i386-win32-vc8-release:errno.obj
 0001:000280e0       _pj_perror_imp             004290e0 f   pjlib-i386-win32-vc8-release:errno.obj
 0001:00028300       _cpool_create_pool         00429300 f   pjlib-i386-win32-vc8-release:pool_caching.obj
 0001:00028430       _cpool_release_pool        00429430 f   pjlib-i386-win32-vc8-release:pool_caching.obj
 0001:00028500       _cpool_dump_status         00429500 f   pjlib-i386-win32-vc8-release:pool_caching.obj
 0001:00028650       _cpool_on_block_alloc      00429650 f   pjlib-i386-win32-vc8-release:pool_caching.obj
 0001:00028670       _cpool_on_block_free       00429670 f   pjlib-i386-win32-vc8-release:pool_caching.obj
 0001:00028980       _thread_main@4             00429980 f   pjlib-i386-win32-vc8-release:os_core_win32.obj
 0001:00028bf0       _init_mutex                00429bf0 f   pjlib-i386-win32-vc8-release:os_core_win32.obj
 0001:00028ff0       _pj_sem_wait_for           00429ff0 f   pjlib-i386-win32-vc8-release:os_core_win32.obj
 0001:0002bd00       _create_mutex_lock         0042cd00 f   pjlib-i386-win32-vc8-release:lock.obj
 0001:0002be60       _grp_lock_destroy          0042ce60 f   pjlib-i386-win32-vc8-release:lock.obj
 0001:0002bf30       _grp_lock_acquire          0042cf30 f   pjlib-i386-win32-vc8-release:lock.obj
 0001:0002bfa0       _grp_lock_tryacquire       0042cfa0 f   pjlib-i386-win32-vc8-release:lock.obj
 0001:0002c090       _grp_lock_release          0042d090 f   pjlib-i386-win32-vc8-release:lock.obj
 0001:0002c370       _get_base_time             0042d370 f   pjlib-i386-win32-vc8-release:os_time_win32.obj
 0001:0002c4e0       _reheap_down               0042d4e0 f   pjlib-i386-win32-vc8-release:timer.obj
 0001:0002c600       _reheap_up                 0042d600 f   pjlib-i386-win32-vc8-release:timer.obj
 0001:0002c6a0       _remove_node               0042d6a0 f   pjlib-i386-win32-vc8-release:timer.obj
 0001:0002c780       _grow_heap                 0042d780 f   pjlib-i386-win32-vc8-release:timer.obj
 0001:0002c800       _insert_node               0042d800 f   pjlib-i386-win32-vc8-release:timer.obj
 0001:0002c850       _schedule_entry            0042d850 f   pjlib-i386-win32-vc8-release:timer.obj
 0001:0002c8b0       _cancel                    0042d8b0 f   pjlib-i386-win32-vc8-release:timer.obj
 0001:0002caa0       _schedule_w_grp_lock       0042daa0 f   pjlib-i386-win32-vc8-release:timer.obj
 0001:0002d180       _increment_counter         0042e180 f   pjlib-i386-win32-vc8-release:ioqueue_select.obj
 0001:0002d1b0       _decrement_counter         0042e1b0 f   pjlib-i386-win32-vc8-release:ioqueue_select.obj
 0001:0002d310       _scan_closing_keys         0042e310 f   pjlib-i386-win32-vc8-release:ioqueue_select.obj
 0001:0002d390       _ioqueue_init_key          0042e390 f   pjlib-i386-win32-vc8-release:ioqueue_select.obj
 0001:0002e7d0       _find_entry                0042f7d0 f   pjlib-i386-win32-vc8-release:hash.obj
 0001:0002ec20       _exception_cleanup         0042fc20 f   pjlib-i386-win32-vc8-release:except.obj
 0001:0002f070       _guid_to_str               00430070 f   pjlib-i386-win32-vc8-release:guid_win32.obj
 0001:0002f430       _ioqueue_on_read_complete  00430430 f   pjlib-i386-win32-vc8-release:activesock.obj
 0001:0002f640       _send_remaining            00430640 f   pjlib-i386-win32-vc8-release:activesock.obj
 0001:0002f770       _ioqueue_on_write_complete 00430770 f   pjlib-i386-win32-vc8-release:activesock.obj
 0001:0002f8a0       _ioqueue_on_accept_complete 004308a0 f   pjlib-i386-win32-vc8-release:activesock.obj
 0001:0002fa20       _ioqueue_on_connect_complete 00430a20 f   pjlib-i386-win32-vc8-release:activesock.obj
 0001:0002ff00       _pool_buf_cleanup          00430f00 f   pjlib-i386-win32-vc8-release:pool_buf.obj
 0001:0002ff40       _stack_alloc               00430f40 f   pjlib-i386-win32-vc8-release:pool_buf.obj
 0001:00030080       _default_block_alloc       00431080 f   pjlib-i386-win32-vc8-release:pool_policy_malloc.obj
 0001:000300e0       _default_block_free        004310e0 f   pjlib-i386-win32-vc8-release:pool_policy_malloc.obj
 0001:00030120       _default_pool_callback     00431120 f   pjlib-i386-win32-vc8-release:pool_policy_malloc.obj
 0001:00030140       _unload_iphlp_module       00431140 f   pjlib-i386-win32-vc8-release:ip_helper_win32.obj
 0001:00030170       _MyGetIpAddrTable          00431170 f   pjlib-i386-win32-vc8-release:ip_helper_win32.obj
 0001:000301e0       _MyGetAdapterAddresses     004311e0 f   pjlib-i386-win32-vc8-release:ip_helper_win32.obj
 0001:00030260       _MyGetIfEntry              00431260 f   pjlib-i386-win32-vc8-release:ip_helper_win32.obj
 0001:000302d0       _enum_ipv4_interface       004312d0 f   pjlib-i386-win32-vc8-release:ip_helper_win32.obj
 0001:000304a0       _enum_ipv4_ipv6_interface  004314a0 f   pjlib-i386-win32-vc8-release:ip_helper_win32.obj
 0001:00030999       _pre_cpp_init              00431999 f   MSVCRT:crtexe.obj
 0001:000309e4       ___tmainCRTStartup         004319e4 f   MSVCRT:crtexe.obj
 0001:00030b5a       _pre_c_init                00431b5a f   MSVCRT:crtexe.obj
 0001:0003130e       _has_osfxsr_set            0043230e f   MSVCRT:cpu_disp.obj
